(lp0
Vsit
p1
aVdure
p2
aVthe
p3
aVperiod
p4
aS'of'
p5
aVfall
p6
aS'in'
p7
aVlove
p8
aVwhen
p9
aS'i'
p10
aVwas
p11
aVinvolv
p12
aS'a'
p13
aVtraffic
p14
aVaccid
p15
aVdrive
p16
aVhome
p17
aVafter
p18
aS''
p19
aVsever
p20
aVday
p21
aVhard
p22
aVwork
p23
aVlost
p24
aVperson
p25
aVwho
p26
aVmeant
p27
aVmost
p28
aS'to'
p29
aS'me'
p30
aVtime
p31
aVknock
p32
aVdeer
p33
aVdown
p34
aS'-'
p35
aVsight
p36
aVanim
p37
aVinjuri
p38
aVand
p39
aVhelpless
p40
aVrealize
p41
aVthat
p42
aS'so'
p43
aVbad
p44
aVhurt
p45
aS'it'
p46
aVhad
p47
aS'be'
p48
aVput
p49
aVdid
p50
aVnot
p51
aVspeak
p52
aVtruth
p53
aVcaus
p54
aVproblem
p55
aVfor
p56
aVsomebodi
p57
aVbecaus
p58
aS'he'
p59
aVcould
p60
aVkeep
p61
aVappoint
p62
aVthis
p63
aVled
p64
aVvarious
p65
aVconsequ
p66
aVgot
p67
aVletter
p68
aVoffer
p69
aVsummer
p70
aVjob
p71
aVappli
p72
aVgo
p73
aValon
p74
aVone
p75
aVnight
p76
aVpari
p77
aVman
p78
aVcame
p79
aS'up'
p80
aVbehind
p81
aVask
p82
aS'if'
p83
aVafraid
p84
aVout
p85
aVlate
p86
aS'at'
p87
aVtalk
p88
aVhim
p89
aVparti
p90
aVfirst
p91
aVlong
p92
aVwhile
p93
aVfriend
p94
aVinterrupt
p95
aS'us'
p96
aVleft
p97
aS'my'
p98
aVnew
p99
aVyear
p100
aVwith
p101
aVthem
p102
aVsaw
p103
aVall
p104
aVveri
p105
aVdrunk
p106
aVkid
p107
aV(13-14
p108
aVold)
p109
aVtown
p110
aS'on'
p111
aVwalpurgi
p112
aVrememb
p113
aVwhat
p114
aVsay
p115
aVabout
p116
aVpresent
p117
aVtask
p118
aS'an'
p119
aVaccount
p120
aVmeet
p121
aVuncl
p122
aVneighbour
p123
aVunder
p124
aVpolic
p125
aVescort
p126
aVfeel
p127
aVclose
p128
aVpartner
p129
aVother
p130
aVpeac
p131
aVmyself
p132
aValso
p133
aVexperi
p134
aVcontact
p135
aVpeopl
p136
aVwhom
p137
aVregard
p138
aVgreat
p139
aVeveri
p140
aVimagin
p141
aVsomeon
p142
aS'or'
p143
aVserious
p144
aVill
p145
aVbeen
p146
aVobvious
p147
aVunjust
p148
aVtreat
p149
aS'no'
p150
aVpossibl
p151
aVelucid
p152
aVthink
p153
aVshort
p154
aS'we'
p155
aVlive
p156
aVrelat
p157
aVlife
p158
aVuse
p159
aVgather
p160
aVfound
p161
aVinvoluntarili
p162
aVnext
p163
aVtwo
p164
aVexpress
p165
aVopinion
p166
aVconsid
p167
aVlow
p168
aVdiscrimin
p169
aVrealiz
p170
aVdirect
p171
aVdiscont
p172
aVway
p173
aVtri
p174
aVblame
p175
aVinstead
p176
aVsort
p177
aVown
p178
aVfeeli
p179
aVguilti
p180
aVmateri
p181
aVthing
p182
aVmore
p183
aVimport
p184
aVthan
p185
aVcare
p186
aVself-cent
p187
aVgirlfriend
p188
aVtaken
p189
aVher
p190
aVexam
p191
aVwent
p192
aVparent
p193
aVplace
p194
aVcar
p195
aS'is'
p196
aVovertak
p197
aVanoth
p198
aS'am'
p199
aVforc
p200
aVoff
p201
aVroad
p202
aVrecent
p203
aVthought
p204
aVtake
p205
aVstudi
p206
aVbristl
p207
aVliver
p208
aVpast
p209
aVtube
p210
aVtire
p211
aVunmotiv
p212
aS'do'
p213
aVenough
p214
aVweekend
p215
aVshould
p216
aVhave
p217
aVabl
p218
aVaccomplish
p219
aVsometh
p220
aVpass
p221
aVexamin
p222
aVwhich
p223
aVwell
p224
aVhas
p225
aVarrang
p226
aVarriv
p227
aVaccus
p228
aVdone
p229
aVseem
p230
aVhopeless
p231
aVdifficult
p232
aVuninterest
p233
aVfind
p234
aVyou
p235
aVknow
p236
aVlike
p237
aVneglect
p238
aVgood
p239
aVexpect
p240
aVclimb
p241
aVtree
p242
aVpick
p243
aVappl
p244
aVangl
p245
aVladder
p246
aVenabl
p247
aVget
p248
aVhigh
p249
aVimpli
p250
aVstabl
p251
aVtortur
p252
aVsame
p253
aS'as'
p254
aVanger
p255
aVabov
p256
aVexcus
p257
aVare
p258
aVnecessari
p259
aVchildren
p260
aS'2'
p261
aVold
p262
aVson
p263
aVsat
p264
aV7th
p265
aVfloor
p266
aVbalconi
p267
aVhis
p268
aVleg
p269
aVhang
p270
aVhold
p271
aVtight
p272
aVupper
p273
aVrail
p274
aVbut
p275
aVeasili
p276
aVbalanc
p277
aVattack
p278
aVthree
p279
aVteeth
p280
aVsee
p281
aS'tv'
p282
aVfrom
p283
aVarea
p284
aVdevast
p285
aS'by'
p286
aVdrought
p287
aVwar
p288
aVnear
p289
aVwalk
p290
aVblindworm
p291
aVthen
p292
aVcrawl
p293
aVaway
p294
aS'18'
p295
aVgrab
p296
aVoxygen
p297
aVmask
p298
aVbreath
p299
aVdifficulti
p300
aVconscienc
p301
aVstop
p302
aVsmoke
p303
aVmedic
p304
aVdilat
p305
aVsens
p306
aVguilt
p307
aVmiddl
p308
aVcannot
p309
aVhimself
p310
aVchild
p311
aVborn
p312
aVwinterspr
p313
aVice
p314
aVmelt
p315
aVfar
p316
aVjetti
p317
aVpoke
p318
aVbranch
p319
aVbreak
p320
aVthrough
p321
aVfell
p322
aVact
p323
aVfail
p324
aVdrunkard
p325
aVenviron
p326
aVmuch
p327
aVwors
p328
aVseen
p329
aVheard
p330
aVradio
p331
aVfootbal
p332
aVmatch
p333
aVbelgium
p334
aVend
p335
aVcatastroph
p336
aVlone
p337
aVlearn
p338
aVmass
p339
aVmedia
p340
aVkill
p341
aVworld
p342
aVlie
p343
aVlet
p344
aVaccept
p345
aVcours
p346
aVfinanc
p347
aVbus
p348
aVdrove
p349
aVover
p350
aVright
p351
aVevent
p352
aVitself
p353
aVfrighten
p354
aVwait
p355
aVemerg
p356
aVward
p357
aVhour
p358
aVbegan
p359
aVswell
p360
aVstudent
p361
aVjust
p362
aVmove
p363
aVinto
p364
aVappart
p365
aVventil
p366
aVkitchen
p367
aVclean
p368
aVdrum
p369
aVfull
p370
aVmud
p371
aVslime
p372
aVfelt
p373
aVdisgust
p374
aVelder
p375
aVbrother
p376
aValway
p377
aVrelationship
p378
aVasham
p379
aVcall
p380
aVnowaday
p381
aVcaretak
p382
aVemploy
p383
aVage
p384
aVprefer
p385
aVlunch
p386
aVpersonnel
p387
aVrather
p388
aVpoint
p389
aVcottag
p390
aVlarg
p391
aVforest
p392
aVspoke
p393
aVjan-erik
p394
aVwikstrm
p395
aVtelephon
p396
aVrailway
p397
aVstation
p398
aVgood-by
p399
aVcrippl
p400
aVrag
p401
aVsmall
p402
aVitali
p403
aVprobabl
p404
aVimpost
p405
aVtold
p406
aVwould
p407
aVenjoy
p408
aValong
p409
aVunderstood
p410
aVfit
p411
aVthere
p412
aVreason
p413
aVbreak-up
p414
aVshe
p415
aVfinish
p416
aVabsolut
p417
aVcertain
p418
aVback
p419
aVdenmark
p420
aVyatch
p421
aVlock
p422
aVmiss
p423
aVlast
p424
aVtram
p425
aVpour
p426
aVrain
p427
aVsome
p428
aVworm
p429
aVfood
p430
aVeaten
p431
aVintox
p432
aVtook
p433
aVhapen
p434
aVoverhear
p435
aVhear
p436
aVwon
p437
aVtrip
p438
aVgreec
p439
aVcompetit
p440
aVdark
p441
aVsuspici
p442
aVlook
p443
aVcharact
p444
aVcome
p445
aVtoward
p446
aVanyth
p447
aVlectur
p448
aValcohol
p449
aVstood
p450
aVdribbl
p451
aVcounter
p452
aVwere
p453
aVdiscuss
p454
aVguy
p455
aVlisten
p456
aVcomplain
p457
aVcolleagu
p458
aVmanag
p459
aVcomplained;
p460
aVbeliev
p461
aVbirthday
p462
aVclosest
p463
aVpleasant
p464
aVhappi
p465
aVsuch
p466
aVfriday
p467
aVheavi
p468
aVacquaplan
p469
aVsurfac
p470
aVfew
p471
aVsecond
p472
aVmad
p473
aVdad
p474
aVcase
p475
aVunrequit
p476
aVsmell
p477
aVcucumb
p478
aVcaught
p479
aVmasturb
p480
aVhelp
p481
aVpool
p482
aVflew
p483
aVathen
p484
aVcopenhagen
p485
aVholiday
p486
aVplane
p487
aVstorm
p488
aVshake
p489
aVthouhght
p490
aVcrash
p491
aVstole
p492
aVbike
p493
aVlist
p494
aVbook
p495
aVread
p496
aVacccout
p497
aVnewspap
p498
aVarticl
p499
aVfutur
p500
aVthey
p501
aVforesaw
p502
aVeat
p503
aVfrog-burg
p504
aV2000
p505
aVillustr
p506
aVshow
p507
aVfrog
p508
aVbetween
p509
aVpiec
p510
aVbread
p511
aVdrop
p512
aVbottl
p513
aVstate
p514
aVliquor
p515
aVstore
p516
aVeverybobi
p517
aVstart
p518
aVlaugh
p519
aVyoung
p520
aS'14'
p521
aVwhole
p522
aVfamili
p523
aVtogeth
p524
aVweek
p525
aVeverybodi
p526
aVfree
p527
aVplan
p528
aVourselv
p529
aVdaughter
p530
aVran
p531
aVeverywher
p532
aS'(i'
p533
aVfinal
p534
aVmarriag
p535
aVcrise
p536
aVboredom
p537
aVmake
p538
aVadvanc
p539
aVdoe
p540
aVwant
p541
aVdiscoveri
p542
aVonli
p543
aVoneself
p544
aVspank
p545
aVlater
p546
aVregret
p547
aVterribl
p548
aVrepeat
p549
aVstockholm
p550
aVstora
p551
aVhissingen
p552
aVwrong
p553
aVexit
p554
aVboyfriend
p555
aVmonth
p556
aVwithout
p557
aVrepeat;
p558
aVdog
p559
aVwhine
p560
aVoutsid
p561
aVshop
p562
aVpromis
p563
aVeconom
p564
aVcut
p565
aVvasa
p566
aVpark
p567
aVrestaur
p568
aVobserv
p569
aVhow
p570
aVgypsi
p571
aVmoney
p572
aVcheat
p573
aVforeign
p574
aS'ie'
p575
aVnon
p576
aVswedish
p577
aVnoth
p578
aVhatr
p579
aVagainst
p580
aVbegin
p581
aVencount
p582
aVcan
p583
aVrevolv
p584
aVaround
p585
aVsubject
p586
aVnotic
p587
aVharrass
p588
aVinfluenc
p589
aVterrifi
p590
aVarrest
p591
aVpedestrian
p592
aVstreet
p593
aVgestur
p594
aVfacial
p595
aVpolicemen;
p596
aVthemselv
p597
aVreveal
p598
aVknew
p599
aVdiscov
p600
aVnatur
p601
aVdishonest
p602
aVgive
p603
aVdiffer
p604
aVversion
p605
aVcorrect
p606
aVthese
p607
aVmistak
p608
aVmargin
p609
aVmark
p610
aVfather
p611
aVresult
p612
aVtest
p613
aVthursday
p614
aVraincoat
p615
aVsmrgasbord
p616
aVtabl
p617
aVprepar
p618
aVcontribut
p619
aVgroup
p620
aVthorough
p621
aVmember
p622
aVhous
p623
aVrecov
p624
aVgave
p625
aVbirth
p626
aValiv
p627
aVtoo
p628
aVearli
p629
aVmalfunct
p630
aVlung
p631
aVhappen
p632
aVago
p633
aVcancer
p634
aVsalari
p635
aVincreas
p636
aVlittl
p637
aVappreci
p638
aVweed
p639
aVgarden
p640
aVlizard
p641
aVhand
p642
aVmet
p643
aVtroubl
p644
aVangri
p645
aVmother
p646
aVtrivial
p647
aVmood
p648
aVrealli
p649
aVneed
p650
aVsupport
p651
aVreact
p652
aVeve
p653
aV19831984
p654
aVplain
p655
aVcloth
p656
aVpolicemen
p657
aVoverturn
p658
aVavenu
p659
aVfast
p660
aVeditor
p661
aVchang
p662
aVhead
p663
aVwritten
p664
aVderogatori
p665
aVacquaint
p666
aVdie
p667
aValthough
p668
aVpictur
p669
aVsexual
p670
aVintercours
p671
aVdesir
p672
aVcurios
p673
aVmade
p674
aVjump
p675
aVbed
p676
aVnow
p677
aVdue
p678
aVlazi
p679
aVloan
p680
aVdubious
p681
aVintent
p682
aValley
p683
aVwednesday
p684
aVnews
p685
aVfeatur
p686
aVsouth
p687
aVafrica
p688
aVpoliceman
p689
aVblack
p690
aVwhip
p691
aVbore
p692
aV400
p693
aVpage
p694
aVenglish
p695
aVgrovel
p696
aVinabl
p697
aVassert
p698
aVposit
p699
aVcafeteria
p700
aVnoisili
p701
aVgulp
p702
aVguess
p703
aVoften
p704
aVunpleas
p705
aVsister
p706
aVhistori
p707
aVabort
p708
aVstillbirth
p709
aVperfect
p710
aVhealti
p711
aVboy
p712
aVstill
p713
aVproject
p714
aVopen
p715
aVcan't
p716
aVani
p717
aVbefor
p718
aVunexpect
p719
aVvisit
p720
aVwander
p721
aVsafeti
p722
aVzone
p723
aVshoot
p724
aVrang
p725
aVunfair
p726
aVgirl
p727
aVnone
p728
aVcolleg
p729
aVscene
p730
aVgrandmoth
p731
aVapplic
p732
aVcoupl
p733
aVonc
p734
aVagain
p735
aVcancel
p736
aVformer
p737
aVsuperior
p738
aVmine
p739
aVfat
p740
aVremark
p741
aVconcern
p742
aVattitud
p743
aVmen
p744
aVsweden
p745
aVpractic
p746
aVour
p747
aVassoci
p748
aVsudden
p749
aVswindl
p750
aVcustom
p751
aS'(a'
p752
aVbank)
p753
aVfeebl
p754
aVpolish
p755
aVvisitor
p756
aVboat
p757
aVchairman
p758
aVassociation)
p759
aVquit
p760
aVbecom
p761
aVvice-chairman
p762
aVorganis
p763
aVsurpris
p764
aVjoy
p765
aVemot
p766
aVtutori
p767
aVsoon
p768
aVdivid
p769
aVdisco
p770
aVeven
p771
aVdespit
p772
aVwhi
p773
aVunderground
p774
aVworri
p775
aVsaid
p776
aVnegat
p777
aVremain
p778
aVfirm
p779
aVmind
p780
aVchat
p781
aVfellow
p782
aVknown
p783
aVhalf
p784
aVsometim
p785
aVquarrel
p786
aVdeath
p787
aVgrandfath
p788
aVbeer
p789
aVtemporari
p790
aVdear
p791
aVusual
p792
aVfear
p793
aVpurest
p794
aVkind
p795
aVincid
p796
aVimag
p797
aVhorror
p798
aVkept
p799
aVwonder
p800
aVtell
p801
aVsweetheart
p802
aVsheer
p803
aVquarel
p804
aVunnecessarili
p805
aVfill
p806
aVquestionnair
p807
aVtenni
p808
aVthin
p809
aVspring
p810
aVcycl
p811
aVcourt
p812
aVrespons
p813
aVcelebr
p814
aVgraduat
p815
aVorchestra
p816
aVplay
p817
aS'('
p818
aVpart
p819
aVorchestra)
p820
aVrisk
p821
aVfight
p822
aVload
p823
aVnormal
p824
aVovertook
p825
aVmainroad
p826
aVschhol
p827
aV(school
p828
aVlove)
p829
aVsk+vde
p830
aVschool
p831
aVdeputi
p832
aVdirt
p833
aVthaw
p834
aVforgot
p835
aVreach
p836
aVforgotten
p837
aVcurrent
p838
aVsituat
p839
aVspontan
p840
aVkiss
p841
aVtravel
p842
aVdelay
p843
aVaffect
p844
aVmother-in-law
p845
aVdepress
p846
aVex-colleagu
p847
aVinterest
p848
aVtheir
p849
aVbureau
p850
aVclever
p851
aVappear
p852
aVfront
p853
aVlot
p854
aVreport
p855
aVapartheid
p856
aVbecam
p857
aVpregnant
p858
aVcollid
p859
aVair
p860
aVtyre
p861
aVsleep
p862
aVrun
p863
aVdrink
p864
aVwine
p865
aVunderstand
p866
aVproper
p867
aVlawyer
p868
aVoffic
p869
aVrefer
p870
aVwatch
p871
aVtriller
p872
aVcountri
p873
aVtoilet
p874
aVthick
p875
aVvomit
p876
aVex-boyfriend
p877
aVmention
p878
aVfiance
p879
aVfact
p880
aVqualifi
p881
aVprofess
p882
aVknife
p883
aVdeni
p884
aVwife
p885
aVbox
p886
aVear
p887
aVfine
p888
aVspeed
p889
aV(had
p890
aVjob)
p891
aVcold
p892
aVroom
p893
aVanyon
p894
aVloneli
p895
aVdrain
p896
aVempti
p897
aVbucket
p898
aVwater
p899
aVhospit
p900
aVfeign
p901
aVsick
p902
aVleav
p903
aVhug
p904
aVoncom
p905
aVbend
p906
aVdriver
p907
aVside
p908
aVskid
p909
aVavoid
p910
aVcollis
p911
aVtow
p912
aVhowev
p913
aVsign
p914
aValreadi
p915
aVoper
p916
aVstay
p917
aVcanteen
p918
aVanyway
p919
aVbuy
p920
aVlibrari
p921
aVsuppos
p922
aVsum
p923
aVdisappear
p924
aVmoment
p925
aVinattention;
p926
aVadvic
p927
aVconfid
p928
aVthird
p929
aVsucceed
p930
aVwarm
p931
aVbehaviour
p932
aVgoe
p933
aVword
p934
aVphone
p935
aVskin
p936
aVdate
p937
aVconvers
p938
aVadult
p939
aVeduc
p940
aVboth
p941
aVeach
p942
aVdissuad
p943
aVpsycholog
p944
aVstatus
p945
aVpolit
p946
aVknowledg
p947
aVexplain
p948
aVview
p949
aVmisunderstood
p950
aVrape
p951
aVassault
p952
aVunconsci
p953
aVdetail
p954
aVaspect
p955
aVunabl
p956
aVdefend
p957
aVunfaith
p958
aVabroad
p959
aVcentral
p960
aVgottenburg
p961
aVspider
p962
aVwall
p963
aVmani
p964
aVaspirin
p965
aVdrank
p966
aVenorm
p967
aVamount
p968
aVspirit
p969
aVdanger
p970
aVyork
p971
aVslept
p972
aVbest
p973
aVnever
p974
aVcomplex
p975
aVfriendship
p976
aVbroke
p977
aVparticular
p978
aVreturn
p979
aVmountain
p980
aVhealthi
p981
aVbodi
p982
aVsoul
p983
aVcollabor
p984
aVsport
p985
aVfishermen
p986
aVcatch
p987
aVgull
p988
aVfish
p989
aVhook
p990
aVsad
p991
aVserv
p992
aVrecal
p993
aVshame
p994
aVchosen
p995
aVprivat
p996
aVterm
p997
aVinform
p998
aVweather
p999
aVsea
p1000
aVsteadi
p1001
aVels
p1002
aVcat
p1003
aVnurs
p1004
aVmental
p1005
aVprimari
p1006
aVtime)
p1007
aVpain
p1008
aV(for
p1009
aVappar
p1010
aVreason)
p1011
aVimposs
p1012
aV(due
p1013
aVadvisor)
p1014
aVlack
p1015
aVcleanli
p1016
aVvaluabl
p1017
aVdrown
p1018
aVici
p1019
aVwear
p1020
aVskate
p1021
aVteacher
p1022
aVreconcil
p1023
aVsteal
p1024
aVcoconut
p1025
aVcake
p1026
aVrecept
p1027
aVmouth
p1028
aVhost
p1029
aS'10'
p1030
aVnation
p1031
aVservic
p1032
aVdowngrad
p1033
aVreprimand
p1034
aVhotel
p1035
aVwhere
p1036
aVautumn
p1037
aV1984
p1038
aVnearbi
p1039
aVimmedi
p1040
aVex-girlfriend
p1041
aVboard
p1042
aVunderneath
p1043
aVsink
p1044
aVhostel)
p1045
aVacadem
p1046
aVolder
p1047
aVjoin
p1048
aVrest
p1049
aVwinter
p1050
aVchapel
p1051
aVsomeeon
p1052
aVprovok
p1053
aVpig
p1054
aVgrunt
p1055
aVirrit
p1056
aVforward
p1057
aVextent
p1058
aVanticip
p1059
aVshout
p1060
aVuntidi
p1061
aVloook
p1062
aVmidnight
p1063
aV1130
p1064
aVdoor
p1065
aVactual
p1066
aVwoke
p1067
aVhere
p1068
aVdepart
p1069
aVpush
p1070
aVcomput
p1071
aVgame
p1072
aVbig
p1073
aVrepay
p1074
aVinsinu
p1075
aV(they
p1076
aVdivorced)
p1077
aVgodmoth
p1078
aVski
p1079
aVslope
p1080
aVsteep
p1081
aVinterf
p1082
aVweek-end
p1083
aVsurgeon
p1084
aVrubbish
p1085
aVbag
p1086
aVdemand
p1087
aVhusband
p1088
aVbrought
p1089
aVflower
p1090
aVattackad
p1091
aVchase
p1092
aVcommunist
p1093
aVchanc
p1094
aVviolat
p1095
aVdefenceless
p1096
aS'9'
p1097
aVdoctor
p1098
aVrestrict
p1099
aVwill
p1100
aVcounsellor
p1101
aVafford
p1102
aVsofa
p1103
aVleather
p1104
aVcost
p1105
aVsek
p1106
aV20000
p1107
aV2-3
p1108
aVvertigo
p1109
aVstand
p1110
aVpaint
p1111
aVboss
p1112
aVenrol
p1113
aVsatisfi
p1114
aVtrampl
p1115
aVmisfortun
p1116
aVargu
p1117
aVspit
p1118
aVspot
p1119
aVseat
p1120
aVcover
p1121
aVsister-in-law
p1122
aVconsult
p1123
aVassign
p1124
aViniti
p1125
aVwithin
p1126
aVhair
p1127
aVbreadth
p1128
aVelect
p1129
aV1982
p1130
aV1985
p1131
aVsocial
p1132
aVdemocrat
p1133
aVmajor
p1134
aVachiev
p1135
aVchicken
p1136
aVfactori
p1137
aS':'
p1138
aVbutcheri
p1139
aVconfess
p1140
aVmope
p1141
aVtheft
p1142
aVanswer
p1143
aVtherefor
p1144
aVtrust
p1145
aVset
p1146
aVwoken
p1147
aVrustl
p1148
aVsound
p1149
aVplumber
p1150
aVnonchal
p1151
aVintead
p1152
aVcritic
p1153
aVprogramm
p1154
aVviolenc
p1155
aVpornographi
p1156
aVshown
p1157
aVmalici
p1158
aVafterward
p1159
aVdecid
p1160
aS's'
p1161
aVdiificult
p1162
aVturn
p1163
aVland
p1164
aVfuel
p1165
aVreagan
p1166
aVtactic
p1167
aVdecis
p1168
aVafrican
p1169
aVboycott
p1170
aVfilm
p1171
aVwoman
p1172
aVworst
p1173
aVeffect
p1174
aVstrong
p1175
aVcomment
p1176
aVinterpret
p1177
aVcomplet
p1178
aVwindow
p1179
aVshut
p1180
aVkitten
p1181
aVframe
p1182
aVrigid
p1183
aVfright
p1184
aVtill
p1185
aVnoisi
p1186
aVguest
p1187
aVslight
p1188
aVearlier
p1189
aVyell
p1190
aVsuccess
p1191
aVsure
p1192
aVsuffici
p1193
aVwipe
p1194
aVoutdoor
p1195
aVwood
p1196
aVexcit
p1197
aVtrouser
p1198
aVadmit
p1199
aVsunshin
p1200
aVdelight
p1201
aVpoor
p1202
aVexclud
p1203
aVplanet
p1204
aVexperienc
p1205
aVpeopli
p1206
aVstrang
p1207
aVraini
p1208
aVmarstrand
p1209
aVswerv
p1210
aVthus
p1211
aVpillar
p1212
aVspent
p1213
aS'6'
p1214
aVcentr
p1215
aV40-50
p1216
aVlikelihood
p1217
aVindoor
p1218
aVreliev
p1219
aVorder
p1220
aVtotal
p1221
aVweak
p1222
aV4-5
p1223
aVhid
p1224
aVbicycl
p1225
aVkey
p1226
aVpretend
p1227
aVend-of-term
p1228
aVfun
p1229
aVsang
p1230
aVsoft
p1231
aVbeach
p1232
aVbikini
p1233
aVaw
p1234
aVcarri
p1235
aVdeserv
p1236
aVordinari
p1237
aVjustif
p1238
aVgiven
p1239
aVscrap
p1240
aVfault
p1241
aVstomach
p1242
aVvirus
p1243
aVmorn
p1244
aVcoffe
p1245
aVreadi
p1246
aVclass
p1247
aVtop
p1248
aVundrink
p1249
aVsouthern
p1250
aVeurop
p1251
aVconvinc
p1252
aVsomeonn
p1253
aVbroken
p1254
aVflat
p1255
aVclear
p1256
aVbehav
p1257
aVfile
p1258
aVdivorc
p1259
aS'8'
p1260
aS'7'
p1261
aVclinic
p1262
aVassist
p1263
aVcollect
p1264
aVdata
p1265
aVpilot
p1266
aVbitten
p1267
aVprovoc
p1268
aVthrew
p1269
aVplate
p1270
aVcommunic
p1271
aVmagazin
p1272
aVwiith
p1273
aVnake
p1274
aVkiosk
p1275
aVpacket
p1276
aVcigarett
p1277
aVdeclin
p1278
aVinvit
p1279
aV70th
p1280
aVcommitt
p1281
aVdans
p1282
aVsaturday
p1283
aS'50'
p1284
aVrocker
p1285
aVequip
p1286
aVchain
p1287
aVcompani
p1288
aVbill
p1289
aVdisconnect
p1290
aVbelong
p1291
aVlandlord
p1292
aVfour
p1293
aVoverdu
p1294
aVmeanwhil
p1295
aVwhenev
p1296
aV(mistreat
p1297
aVused)
p1298
aS'13'
p1299
aVwrote
p1300
aVpassion
p1301
aVhate
p1302
aVmmi
p1303
aVflatmat
p1304
aVnice
p1305
aVstraight
p1306
aVbrake
p1307
aVracist
p1308
aVslogan
p1309
aVarm
p1310
aVexport
p1311
aVoutskirt
p1312
aVfamiliar
p1313
aVnois
p1314
aVglass
p1315
aVjealous
p1316
aVreminisc
p1317
aVpredica
p1318
aVshoulder
p1319
aVauxiliari
p1320
aVnappi
p1321
aVoccas
p1322
aVhandl
p1323
aVbabi
p1324
aVpatienc
p1325
aVprior
p1326
aVd&c
p1327
aVanasthesia
p1328
aVmiscarriag
p1329
aVexchang
p1330
aVmatter
p1331
aVtreatment
p1332
aVdiarrhoea
p1333
aVpile
p1334
aVinjur
p1335
aVsupervis
p1336
aVbreast
p1337
aVlabour
p1338
aVfoetal
p1339
aVfaint
p1340
aValert
p1341
aVforcep
p1342
aVdeliveri
p1343
aVcash
p1344
aVdesk
p1345
aVgone
p1346
aS'16'
p1347
aVroll
p1348
aVpaper
p1349
aVreduc
p1350
aVprice
p1351
aVqueu
p1352
aVscream
p1353
aVchildren;
p1354
aVrebat
p1355
aVtage
p1356
aVdannielsson
p1357
aVlift
p1358
aVstank
p1359
aVurin
p1360
aVtrain
p1361
aVtouch
p1362
aVdisapprov
p1363
aVaggress
p1364
aVthough
p1365
aVentranc
p1366
aVgang
p1367
aVyouth
p1368
aVcaptur
p1369
aVrefre
p1370
aVteam
p1371
aVleader
p1372
aVdomin
p1373
aVreaction
p1374
aVdetent
p1375
aVsecondari
p1376
aVsplash
p1377
aVslow
p1378
aVpuddl
p1379
aVyesterday
p1380
aVteach
p1381
aVscare
p1382
aVdrummer
p1383
aVborrow
p1384
aVdestroy
p1385
aVdrumskin
p1386
aVstick
p1387
aVrepair
p1388
aVnor
p1389
aVprioriti
p1390
aVband
p1391
aVactiv
p1392
aVrehears
p1393
aVgarag
p1394
aVspread
p1395
aVpurpos
p1396
aVface
p1397
aVdeceiv
p1398
aVdive
p1399
aVamong
p1400
aVshark
p1401
aVbright
p1402
aVcolour
p1403
aVouter
p1404
aVreef
p1405
aVtvavni
p1406
aVbeacaus
p1407
aVprejudic
p1408
aVhire
p1409
aVtonga
p1410
aVcockroach
p1411
aVexcret
p1412
aVmat
p1413
aVpotti
p1414
aVpull
p1415
aVchair
p1416
aVkindergarten
p1417
aVhit
p1418
aVlicenc
p1419
aVditch
p1420
aVrock
p1421
aV2-4
p1422
aVjog
p1423
aVrepons
p1424
aVunbeliev
p1425
aVreoccur
p1426
aVdisappoint
p1427
aVcontinu
p1428
aVoverreact
p1429
aVbetter
p1430
aVattract
p1431
aVcarriag
p1432
aVpipe
p1433
aVfroze
p1434
aVfeed
p1435
aVgarlic
p1436
aVrush-hour
p1437
aVground
p1438
aVcross
p1439
aVcap
p1440
aVeye
p1441
aVtwo-month
p1442
aVchristma
p1443
aVunknown
p1444
aVdistrict
p1445
aVreligion
p1446
aVshock
p1447
aVsectarian
p1448
aVdoom
p1449
aVoffici
p1450
aVvideo-tap
p1451
aVmovi
p1452
aVamerica
p1453
aVinsult
p1454
aVcarrot
p1455
aVapolog
p1456
aVowner
p1457
aVescal
p1458
aVhelsinki
p1459
aVshare
p1460
aVslipperi
p1461
aVshoe
p1462
aVtumbl
p1463
aVate
p1464
aVruneberg
p1465
aVnine
p1466
aS'pm'
p1467
aVfoot
p1468
aS'5'
p1469
aVten
p1470
aVsicilia
p1471
aVchannel
p1472
aVswitch
p1473
aVcannel
p1474
aVboy-friend
p1475
aVseper
p1476
aVmanner
p1477
aVovercom
p1478
aVscrupl
p1479
aVfallen
p1480
aVglad
p1481
aVbesid
p1482
aVlight
p1483
aVminut
p1484
aVcomplic
p1485
aVtramway-carriage:
p1486
aVstranger
p1487
aVblew
p1488
aVnose
p1489
aVdetest
p1490
aVerron
p1491
aVinstanc
p1492
aVill-consid
p1493
aVsail
p1494
aVride
p1495
aV120
p1496
aVkmh
p1497
aVsnow-cov
p1498
aVmotorway
p1499
aVmale
p1500
aVwhose
p1501
aVaffair
p1502
aV(anoth
p1503
aVgirl)
p1504
aVsuggest
p1505
aVround-about
p1506
aVetc
p1507
aVacross
p1508
aVbasic
p1509
aVideasbelief
p1510
aVquick
p1511
aVwast
p1512
aV(also
p1513
aVmoral
p1514
aVright)
p1515
aVwhite
p1516
aVsettler
p1517
aVdanc
p1518
aVrealis
p1519
aVforgiven
p1520
aVgod
p1521
aVparalys
p1522
aVbankrupt
p1523
aV(befor
p1524
aVmum
p1525
aVcapabl
p1526
aVselfish
p1527
aVabove:
p1528
aVrock-climb
p1529
aVabsail
p1530
aS'&'
p1531
aS'ok'
p1532
aVger
p1533
aVdidn't
p1534
aVstage
p1535
aVscholarship
p1536
aVnorway
p1537
aVtarmac
p1538
aVpart-tim
p1539
aVshop-assist
p1540
aVloud
p1541
aVindian
p1542
aVhorribl
p1543
aVroman
p1544
aVcathol
p1545
aVpriest
p1546
aV(redemptist
p1547
aVfather)
p1548
aVde-facto
p1549
aVsnap
p1550
aVabrupt
p1551
aVreceiv
p1552
aVwed
p1553
aVex-flatm
p1554
aVafternoon
p1555
aVladi
p1556
aVstarv
p1557
aVethiopia
p1558
aVsuffer
p1559
aVoccur
p1560
aVdisclos
p1561
aVdogit
p1562
aVdirti
p1563
aVconstant
p1564
aVmisunderstand
p1565
aVnasti
p1566
aVrelatioship
p1567
aVapprov
p1568
aVchoic
p1569
aV(now
p1570
aVex-boyfriend)
p1571
aVunsuit
p1572
aVidiot
p1573
aS'(3'
p1574
aVyear)
p1575
aVtradit
p1576
aVdinner
p1577
aVgrandpar
p1578
aVvacat
p1579
aVguttenburg
p1580
aV(relationship
p1581
aVuncertain)
p1582
aVengland
p1583
aV(we
p1584
aVengland)
p1585
aVheart
p1586
aVtenant
p1587
aVpostpon
p1588
aVeventu
p1589
aVsepar
p1590
aVincit
p1591
aVvile
p1592
aVcloser
p1593
aVnephew
p1594
aVstori
p1595
aVsimpli
p1596
aVenergi
p1597
aVset-back
p1598
aVharbour
p1599
aVlatrin
p1600
aVcontain
p1601
aVlorri
p1602
aVgutttenburg
p1603
aVsimilar
p1604
aVcrept
p1605
aVteenag
p1606
aV(14)
p1607
aVbrother-in-law
p1608
aVlover
p1609
aVviolent
p1610
aVdesper
p1611
aVunhappi
p1612
aVargument
p1613
aVmean
p1614
aVyounger
p1615
aVnightmar
p1616
aVsqueez
p1617
aVpuppi
p1618
aVnotifi
p1619
aVmotor
p1620
aVfailur
p1621
aVwind
p1622
aVsteer
p1623
aVdrift
p1624
aVattent
p1625
aVpasserbi
p1626
aVuntil
p1627
aS'4'
p1628
aVelaps
p1629
aVbother
p1630
aVcollective)
p1631
aVcommit
p1632
aVsuicid
p1633
aVshop-keep
p1634
aVdead
p1635
aVshot
p1636
aVshotgun
p1637
aVfelf
p1638
aVdebut
p1639
aVullevi
p1640
aVifk
p1641
aV7-8
p1642
aVexact
p1643
aVtour
p1644
aVasia
p1645
aVfeedback
p1646
aVatmospher
p1647
aVrelax
p1648
aVexist
p1649
aVmischievi
p1650
aVring
p1651
aVchemist
p1652
aVtrade-entr
p1653
aVdoorbel
p1654
aVamok
p1655
aV(fighting)
p1656
aVbun
p1657
aVsquirrel
p1658
aVsupervisor
p1659
aVnotif
p1660
aVpost
p1661
aVnovemb
p1662
aVcommitte
p1663
aVheadmast
p1664
aVcharg
p1665
aVsuitabl
p1666
aS'17'
p1667
aVspite
p1668
aVagre
p1669
aVapart
p1670
aVanti-pornographi
p1671
aV5th
p1672
aVmarch
p1673
aV(women
p1674
aVday)
p1675
aVtent
p1676
aV16-year
p1677
aVchronic
p1678
aVdeseas
p1679
aV1983
p1680
aVseizur
p1681
aVdrunken
p1682
aVbeat
p1683
aVlillehamm
p1684
aVextrem
p1685
aVquestion
p1686
aVspecif
p1687
aVsisit
p1688
aVstone
p1689
aVnear-accid
p1690
aVpurs
p1691
aVhunt
p1692
aVmisdemeanour
p1693
aVslaughter
p1694
aVenter
p1695
aVguitar
p1696
aVgeneral
p1697
aVprovid
p1698
aVmusic
p1699
aVsuit
p1700
aVtast
p1701
aVdescrib
p1702
aVcast
p1703
aVconserv
p1704
aVgovern
p1705
aValmost
p1706
aVrumour
p1707
aVex-husband
p1708
aVspecial
p1709
aVcrime
p1710
aS'!'
p1711
aVgrade
p1712
aVevalu
p1713
aVterror
p1714
aVcinema
p1715
aVgradmoth
p1716
aVi'm
p1717
aVabsenc
p1718
aVconfront
p1719
aVinadequ
p1720
aVcasual
p1721
aVpublic
p1722
aVswim
p1723
aVhall
p1724
aVstatement
p1725
aVinfidel
p1726
aVeaster
p1727
aVhadn't
p1728
aVfals
p1729
aVcouldn't
p1730
aVdon't
p1731
aVcri
p1732
aS'km'
p1733
aVbeaten
p1734
aVairport
p1735
aVmurder
p1736
aVberlin
p1737
aV(and
p1738
aVgenerally)
p1739
aVmob
p1740
aVsecret
p1741
aVfond
p1742
aVacquaintac
p1743
aVdeaf
p1744
aVhyperact
p1745
aVslowli
p1746
aVprocess
p1747
aVrenew
p1748
aVpower
p1749
aVminor
p1750
aVagreement
p1751
aVmilitari
p1752
aVtrnsgression
p1753
aVhidden
p1754
aVhonest
p1755
aVfair
p1756
aVaunt
p1757
aVpostcard
p1758
aVform
p1759
aVdoesn't
p1760
aVcliff
p1761
aVmate
p1762
aVgear
p1763
aVguid
p1764
aV(scout
p1765
aS'?)'
p1766
aVdisbeliev
p1767
aVpunish
p1768
aV(lying)
p1769
aVrequir
p1770
aVauthor
p1771
aVradiotv
p1772
aVdealer
p1773
aVloos
p1774
aVspokesman
p1775
aVunion
p1776
aVexecut
p1777
aVmassacr
p1778
aS'ii'
p1779
aVmanipul
p1780
aVparticip
p1781
aVmessag
p1782
aVi'd
p1783
aVrefil
p1784
aVpackag
p1785
aVi'v
p1786
aVwin
p1787
aVlocal
p1788
aVsoccer
p1789
aVchampionship
p1790
aVcross-countri
p1791
aVepisod
p1792
aVnorvegian
p1793
aVindipend
p1794
aVfire
p1795
aVthreaten
p1796
aVsoldier
p1797
aVunit
p1798
aV10-year
p1799
aVbrain
p1800
aVtumor
p1801
aVclub
p1802
aVdrug
p1803
aVilloy
p1804
aV(disloyal)
p1805
aVmotorcycl
p1806
aVtaxi
p1807
aVexpens
p1808
aVliter
p1809
aVruin
p1810
aVaccident
p1811
aVcamera
p1812
aVflash
p1813
aVsell
p1814
aVcontract
p1815
aVpension
p1816
aVbitter
p1817
aVsadistinc
p1818
aVexacut
p1819
aVusa
p1820
aVforget
p1821
aVdeliv
p1822
aS'30'
p1823
aVwouldn't
p1824
aVpornograph
p1825
aVunjustifi
p1826
aVdisplay
p1827
aVparents-in-law
p1828
aVreunion
p1829
aVlegal
p1830
aVphysic
p1831
aVwarn
p1832
aVmaltreat
p1833
aVtransgress
p1834
aVlose
p1835
aVthose
p1836
aVunattract
p1837
aVauto
p1838
aVsweatheart
p1839
aVtype
p1840
aVblood
p1841
aVpud
p1842
aVslander
p1843
aV(small
p1844
aVboys)
p1845
aVcounti
p1846
aVlower
p1847
aVentitl
p1848
aVneighbor
p1849
aVfarm
p1850
aVbank
p1851
aVspain
p1852
aVbump
p1853
aVneck
p1854
aVfamal
p1855
aVbreackdown
p1856
aVteacher-par
p1857
aVdeal
p1858
aVfeed-back
p1859
aVpupil
p1860
aVten-year-old
p1861
aVfuner
p1862
aVgrand-fath
p1863
aVceremoni
p1864
aVheld
p1865
aVchurch
p1866
aVover-weight
p1867
aVgirl-friend
p1868
aVwife)
p1869
aVbetray
p1870
aVlesson
p1871
aVconflict
p1872
aVprobatori
p1873
aVcrisi
p1874
aVunreal
p1875
aVfigur
p1876
aVshadow
p1877
aV(in
p1878
aVsense)
p1879
aVneedless
p1880
aVanxieti
p1881
aVself-insight
p1882
aVpal
p1883
aS'(1'
p1884
aS"o'"
p1885
aVclock)
p1886
aVspanish
p1887
aVtv-chair
p1888
aVrude
p1889
aVhamburg
p1890
aVbar
p1891
aVcough
p1892
aVchap
p1893
aVvalu
p1894
aVproperti
p1895
aVapproxim
p1896
aS'15'
p1897
aV000
p1898
aVfim
p1899
aVtea
p1900
aVrum
p1901
aVthroat
p1902
aVinter
p1903
aVnapl
p1904
aVprostitut
p1905
aVapproach
p1906
aVherself
p1907
aVrefus
p1908
aVfollow
p1909
aVreperbahn
p1910
aVreberbahn
p1911
aVdentist
p1912
aVarmi
p1913
aVworker
p1914
aVstupid
p1915
aVrussian
p1916
aVroulett
p1917
aV(obvious
p1918
aVrush
p1919
aVciti
p1920
aVhundr
p1921
aVsnake
p1922
aVtwist
p1923
aVskid-row
p1924
aV(chronical)
p1925
aVstandard
p1926
aVbird
p1927
aVuncertainti
p1928
aVabil
p1929
aVrich
p1930
aVme:
p1931
aVmay
p1932
aVyour
p1933
aVstairway?
p1934
aVcomplaint
p1935
aVimplicit
p1936
aVcolleag
p1937
aVdomest
p1938
aVchore
p1939
aVgreet
p1940
aVspoilt
p1941
aS'lp'
p1942
aVeager
p1943
aVreproach
p1944
aVcook
p1945
aVcriticis
p1946
aVgoal
p1947
aVice-hockey
p1948
aVexploit
p1949
aVrejoyc
p1950
aVdepend
p1951
aVqualiti
p1952
aVdocumentay
p1953
aVprogram
p1954
aVthem)
p1955
aVretir
p1956
aV(which
p1957
aVrelief
p1958
aVstress
p1959
aVscale
p1960
aVenterprise)
p1961
aVconduct
p1962
aVseminar
p1963
aVunivers
p1964
aVsalvat
p1965
aVfurnitur
p1966
aVlavatori
p1967
aVlanguag
p1968
aVlonger
p1969
aVgrand-moth
p1970
aVunthink
p1971
aVinconsider
p1972
aVexercis
p1973
aVmovie)
p1974
aVlong-dist
p1975
aVpast;
p1976
aVinherit
p1977
aVpeculiar
p1978
aVpublicali
p1979
aV(parent
p1980
aVmonths)
p1981
aVrage
p1982
aVrack
p1983
aVrug
p1984
aVdiseas
p1985
aVlodg
p1986
aVsuburb
p1987
aVcomfort
p1988
aVsober
p1989
aV100
p1990
aVembarras
p1991
aVdowntown
p1992
aVtax
p1993
aVfarewel
p1994
aVsecretari
p1995
aVsunni
p1996
aVmistook
p1997
aVheavyli
p1998
aVendeavour
p1999
aVself-control
p2000
aVrais
p2001
aVvoic
p2002
aVtv-program
p2003
aVparanorm
p2004
aVphenomena
p2005
aVhumanoid
p2006
aVscorn
p2007
aVdish
p2008
aV(the
p2009
aVfavourit
p2010
aVfamily)
p2011
aVoven
p2012
aVburnt
p2013
aVuneat
p2014
aVwork)
p2015
aVodd
p2016
aVbedroom
p2017
aVnobodi
p2018
aVsinc
p2019
aV(later
p2020
aVdare
p2021
aVwidow)
p2022
aVclassmat
p2023
aVmathemat
p2024
aVgrown
p2025
aVweari
p2026
aVthrow
p2027
aVobey
p2028
aVseri
p2029
aVfreud
p2030
aVlend
p2031
aVbelow
p2032
aVpressur
p2033
aVreal
p2034
aVburden
p2035
aVpee
p2036
aVswimming-pool
p2037
aVsent
p2038
aVshini
p2039
aVjourney
p2040
aVnicaragua
p2041
aVthreat
p2042
aVmitten
p2043
aV(left
p2044
aVme)
p2045
aVwild
p2046
aVmisus
p2047
aVcheck
p2048
aVcareless
p2049
aVunequ
p2050
aVencourag
p2051
aVenvelopp
p2052
aVtear
p2053
aVtorn
p2054
aVstamp
p2055
aVaway)
p2056
aVfaith
p2057
aVfirst-day
p2058
aVespeci
p2059
aVcompel
p2060
aVreligi
p2061
aVsect
p2062
aVconvert
p2063
aVmangl
p2064
aVduck
p2065
aVseek
p2066
aVadmiss
p2067
aVfaculti
p2068
aVscienc
p2069
aV(he
p2070
aVdrunk)
p2071
aVroom-mat
p2072
aVcarpet
p2073
aVmid-night
p2074
aVtend
p2075
aVboast
p2076
aVbaby-sit
p2077
aVcousin
p2078
aV2130
p2079
aVstatist
p2080
aVsurpass
p2081
aVsnout
p2082
aVmovement
p2083
aVprevent
p2084
aVsubtl
p2085
aVvagu
p2086
aVimpress
p2087
aVthoughtless
p2088
aVimprop
p2089
aVfought
p2090
aVdefinit
p2091
aVcrack
p2092
aVfenc
p2093
aVdrawn
p2094
aVsensibl
p2095
aVrave
p2096
aVaccur
p2097
aVcorps
p2098
aVpress
p2099
aVcurtain
p2100
aVbought
p2101
aVhindranc
p2102
aValtern
p2103
aVlife-partn
p2104
aVestrang
p2105
aV(way
p2106
aVcozy
p2107
aVridicul
p2108
aVattempt
p2109
aVreconcili
p2110
aVirrevers
p2111
aVspat
p2112
aVsenior
p2113
aVcitizen
p2114
aVinvalid
p2115
aVnonacadem
p2116
aVdegre
p2117
aVoverwhelm
p2118
aVenquiri
p2119
aVgenuin
p2120
aVolli
p2121
aVjalonen
p2122
aVopposit
p2123
aVsex
p2124
aVreject
p2125
aVsulk
p2126
aVdwell
p2127
aVcrowd
p2128
aVgrow
p2129
aVdoubt
p2130
aVlung-canc
p2131
aVchoke
p2132
aVmucus
p2133
aVoutrag
p2134
aVme(blam
p2135
aVlying)
p2136
aVyear-old
p2137
aVgrew
p2138
aV(unpleasant)
p2139
aVexampl
p2140
aVdancing-tavern
p2141
aVaddress
p2142
aVpop
p2143
aVsun
p2144
aVinflamm
p2145
aVcure
p2146
aVcouncil
p2147
aS'40'
p2148
aVlinden
p2149
aVinhabit
p2150
aVgossip
p2151
aV(at
p2152
aVmusic)
p2153
aVperform
p2154
aVstair
p2155
aVski-jump
p2156
aVhill
p2157
aVhunter
p2158
aVstict
p2159
aVnarrow
p2160
aVunfriend
p2161
aV(mi
p2162
aVfault)
p2163
aVstep-moth
p2164
aVdream
p2165
aVbloodsuck
p2166
aVevil
p2167
aVjolli
p2168
aS'ex'
p2169
aVinter-rail-trip
p2170
aVfemal
p2171
aVmaster
p2172
aVthesi
p2173
aVhope
p2174
aVcompar
p2175
aVcamp
p2176
aV(step
p2177
aVgrandma
p2178
aVticket
p2179
aVhigher
p2180
aVdespis
p2181
aVrent
p2182
aV(from
p2183
aVtown)
p2184
aVhint
p2185
aVless
p2186
aVlandladi
p2187
aVescap
p2188
aV(though
p2189
aVbell)
p2190
aVpeep
p2191
aVhole
p2192
aVkilometr
p2193
aVharsh
p2194
aVdisagr
p2195
aVkankaanpss
p2196
aVlow-spirit
p2197
aVaeroplan
p2198
aVutter
p2199
aVcalcul
p2200
aVcard
p2201
aVscholarship)
p2202
aVquiet
p2203
aVbush
p2204
aVexhibitionist
p2205
aVnotebook
p2206
aV(almanach)
p2207
aVeasi
p2208
aVpleasur
p2209
aVpermiss
p2210
aVhelper
p2211
aVinterview
p2212
aVshook
p2213
aV(whom
p2214
aVknow)
p2215
aVguinea-pig
p2216
aVheart-attack
p2217
aVdynasti
p2218
aVred-cheek
p2219
aVfaster
p2220
aVblunder
p2221
aVlane
p2222
aVmarri
p2223
aVago)
p2224
aVturku
p2225
aVseven
p2226
aVawok
p2227
aVantth
p2228
aVoppress
p2229
aVexcurs
p2230
aVout-of-the-way
p2231
aVconcert
p2232
aVbeauti
p2233
aVattain
p2234
aVenthusiast
p2235
aVstudent-lik
p2236
aVattend
p2237
aVentertain
p2238
aVamus
p2239
aVsketch
p2240
aVsing
p2241
aVsong
p2242
aVfund
p2243
aVbuild
p2244
aVrefuge
p2245
aVaffair)
p2246
aVfractoin
p2247
aVlead
p2248
aVsecur
p2249
aVnineteenth
p2250
aVcenturi
p2251
aVmelodi
p2252
aV(although
p2253
aVnaive)
p2254
aVelev
p2255
aVfalter
p2256
aVstolen)
p2257
aVcup
p2258
aVroof
p2259
aVshed
p2260
aVball
p2261
aVfrantoi
p2262
aVtruffaut
p2263
aVmisbehav
p2264
aVwish
p2265
aVsauna
p2266
aVbath
p2267
aVeleph
p2268
aVdownhil
p2269
aV(she
p2270
aVsing)
p2271
aVeve:
p2272
aVtension
p2273
aVsaid:
p2274
aVintim
p2275
aVcommerci
p2276
aVsearch
p2277
aVabsent
p2278
aVsix
p2279
aVgigant
p2280
aVunwel
p2281
aVprize-competit
p2282
aVundergo
p2283
aVparents;
p2284
aVaccident;
p2285
aVsituation:
p2286
aVscuffl
p2287
aVvienna
p2288
aVgrief;
p2289
aVaction
p2290
aVparty;
p2291
aVeco-activist
p2292
aVdemonstr
p2293
aVdanub
p2294
aVlowland
p2295
aV(hainburg)
p2296
aVuntidy;
p2297
aVme;
p2298
aVfortun
p2299
aVfetch
p2300
aVwet
p2301
aVbroad
p2302
aVdaylight
p2303
aVpiss
p2304
aVpeni
p2305
aVpleas
p2306
aVthank
p2307
aVhors
p2308
aVsave
p2309
aVphantasi
p2310
aVwomen;
p2311
aVbath-tub
p2312
aVintens
p2313
aVplant
p2314
aVlicens
p2315
aValcool
p2316
aVdissect
p2317
aVmain
p2318
aVformalin
p2319
aVwrite
p2320
aVortograph
p2321
aVbathroom
p2322
aVcount
p2323
aVrearrang
p2324
aVstuck
p2325
aV(not
p2326
aVfriend)
p2327
aVtyrol
p2328
aVhut
p2329
aValcool)
p2330
aVsoil
p2331
aV(13
p2332
aVyears)
p2333
aVcellulos
p2334
aV16)
p2335
aVdiscothequ
p2336
aVhuge
p2337
aVstray
p2338
aVdistanc
p2339
aVignor
p2340
aVpersuad
p2341
aVmodel
p2342
aVquarter
p2343
aVcruelti
p2344
aVprison
p2345
aVsouteneur
p2346
aVcircles;
p2347
aVdescript
p2348
aVpsychotherapist
p2349
aV(17
p2350
aVinterfer
p2351
aVau-pair-girl
p2352
aVlondon
p2353
aS'st'
p2354
aVclaus
p2355
aVfive
p2356
aVdevil
p2357
aVservant
p2358
aVrattl
p2359
aVbowl
p2360
aVvillag
p2361
aVfom
p2362
aVimpati
p2363
aVeight
p2364
aVbeyond
p2365
aVsoup
p2366
aVstare
p2367
aVtongu
p2368
aVnausea
p2369
aVgynecologist
p2370
aVhairdress
p2371
aV1977
p2372
aVbehavior
p2373
aS'12'
p2374
aV12:30
p2375
aVsympathi
p2376
aVinsid
p2377
aVfranc
p2378
aVsilli
p2379
aVinquiri
p2380
aVclerk
p2381
aVarrog
p2382
aVfrequent
p2383
aS'24'
p2384
aVdepartur
p2385
aVschool:
p2386
aVseiz
p2387
aVthrown
p2388
aVasid
p2389
aVmeddl
p2390
aVmith
p2391
aS'3'
p2392
aVjanuari
p2393
aV6th
p2394
aVmagi)
p2395
aVhandicap
p2396
aVspittl
p2397
aVetc)
p2398
aVpay
p2399
aVeveryth
p2400
aVchoral
p2401
aVsolist
p2402
aVconcert5
p2403
aVcantor
p2404
aVpsalm
p2405
aVholdiday
p2406
aVsouth-africa
p2407
aS'pt'
p2408
aVinstructor
p2409
aVmasseur
p2410
aVmassag
p2411
aVtheoret
p2412
aVundergon
p2413
aVsmile
p2414
aVmarocco
p2415
aVferry-boat
p2416
aVaccomod
p2417
aVsite
p2418
aVrob
p2419
aVexhaust
p2420
aVhumili
p2421
aVcalm
p2422
aVcheck-up
p2423
aVallow
p2424
aVoverflow
p2425
aVmisti
p2426
aVinsecur
p2427
aVadequ
p2428
aVcontrol
p2429
aVtram:
p2430
aVgrumbl
p2431
aVapparatus
p2432
aVgymnast
p2433
aVoutward
p2434
aVcircumst
p2435
aVheat
p2436
aVstove
p2437
aVglow
p2438
aVexplod
p2439
aVtrick
p2440
aVappont
p2441
aVopportun
p2442
aVwellpay
p2443
aV11-month
p2444
aVjubile
p2445
aVlay
p2446
aVgrass-parakeet
p2447
aVadmonish
p2448
aVhomework
p2449
aVslap
p2450
aVscold
p2451
aVhurri
p2452
aVembrac
p2453
aS'53'
p2454
aVhitch-hik
p2455
aVmadman
p2456
aVhainburg
p2457
aVdecemb
p2458
aVmonk
p2459
aVbarrel
p2460
aVfriend;
p2461
aVcollegu
p2462
aVcherri
p2463
aVfaschist
p2464
aVburst
p2465
aVmotorbik
p2466
aVincauti
p2467
aVrelationshop
p2468
aVconsolid
p2469
aVhand-mad
p2470
aVhabit
p2471
aVdeep
p2472
aVwomen
p2473
aVcautious
p2474
aVconsider
p2475
aVdamag
p2476
aVhouse-hunting:
p2477
aVshoplift
p2478
aVpair
p2479
aVearring
p2480
aVcole
p2481
aVtremend
p2482
aV(bi
p2483
aVhimself)
p2484
aVfoul
p2485
aVswear
p2486
aVstolen
p2487
aVdoll
p2488
aVdress
p2489
aVnext-door
p2490
aVgreed
p2491
aS'cm'
p2492
aVdiamet
p2493
aVonto
p2494
aVpillow
p2495
aVwould-b
p2496
aVin-law
p2497
aVserior
p2498
aVlong-term
p2499
aVuser
p2500
aVmed
p2501
aVfourth
p2502
aVtwice
p2503
aVwayn
p2504
aVsue
p2505
aV(close
p2506
aVfriends)
p2507
aVannounc
p2508
aVguardian
p2509
aVther
p2510
aVapprox
p2511
aS'1'
p2512
aS'm'
p2513
aV(after
p2514
aVmidair)
p2515
aVscrub
p2516
aVgrave
p2517
aV(aprox
p2518
aV6-7
p2519
aVharass
p2520
aV(refer
p2521
aVguilt)
p2522
aVzig-zag
p2523
aV180
p2524
aVgulli
p2525
aVshouldn't
p2526
aVovereaten
p2527
aVweight
p2528
aVsemest
p2529
aVecstat
p2530
aVreclus
p2531
aVpenultim
p2532
aVsection
p2533
aVdocument
p2534
aVsavageri
p2535
aVyard
p2536
aVassum
p2537
aVdismiss
p2538
aVbrutal
p2539
aVtext
p2540
aVstutter
p2541
aVreprov
p2542
aVeighth
p2543
aVloss
p2544
aVtoday
p2545
aVbackward
p2546
aVagress
p2547
aVleast
p2548
aVsuffoc
p2549
aVdistort
p2550
aVbring
p2551
aVeither
p2552
aVsubjug
p2553
aVhide
p2554
aVconveni
p2555
aV(about
p2556
aVword)
p2557
aVrebuk
p2558
aVoffend
p2559
aVnonsens
p2560
aVwhether
p2561
aVflight
p2562
aVwithhim
p2563
aVgraz
p2564
aVtranslat
p2565
aVgerman
p2566
aVbusi
p2567
aVslow-worm
p2568
aV(without
p2569
aVhead)
p2570
aVveterinari
p2571
aVhealth
p2572
aVoral
p2573
aVcave
p2574
aVdied;
p2575
aVstronger
p2576
aVmolest
p2577
aVlatin
p2578
aVpoison
p2579
aVunpunctu
p2580
aVbutcher
p2581
aVslaughtered;
p2582
aVdrip
p2583
aVclass-mat
p2584
aVuncanni
p2585
aVcellar
p2586
aVidea
p2587
aVdefenc
p2588
aV500
p2589
aVshill
p2590
aVdrew
p2591
aVpullov
p2592
aVyet
p2593
aVawak
p2594
aVfrock
p2595
aVcarinthia
p2596
aVbit
p2597
aVroe
p2598
aVresign
p2599
aVstation-hal
p2600
aVmust
p2601
aVlard
p2602
aVbreadcrumb
p2603
aVpocket
p2604
aVapron
p2605
aVvener
p2606
aVinfect
p2607
aVtrue
p2608
aVmotion
p2609
aVsnow
p2610
aVheavili
p2611
aVlector
p2612
aVkerb
p2613
aS'el'
p2614
aVsalvador
p2615
aVrace
p2616
aVshort-cut
p2617
aVallowed)
p2618
aVdisqualifi
p2619
aVturkey
p2620
aVmedicin
p2621
aVdissecting-cours
p2622
aVtournament
p2623
aVtennis-club
p2624
aVweaker
p2625
aVplayer
p2626
aVmight
p2627
aVtooth
p2628
aVdrill
p2629
aVhungri
p2630
aVtoy
p2631
aVsinging-lesson
p2632
aVinstil
p2633
aVvain
p2634
aVconcert-tour
p2635
aVwarmth
p2636
aV18th
p2637
aVdriving-test
p2638
aVkilomet
p2639
aVone-way
p2640
aVphysics-examin
p2641
aVexamn
p2642
aVsold
p2643
aVjoke
p2644
aVcarneval-parti
p2645
aVsmooch
p2646
aVtussl
p2647
aVunintent
p2648
aVamsterdam
p2649
aVsympathet
p2650
aVpsycho
p2651
aVhitchcock
p2652
aVcrazi
p2653
aVtemperatur
p2654
aVlimp
p2655
aVspaghetti
p2656
aVnevertheless
p2657
aVunsavouri
p2658
aVdeprecatori
p2659
aVwhereupon
p2660
aVprimary-school
p2661
aVtonsil
p2662
aVwake
p2663
aVtwelv
p2664
aVo'clock
p2665
aVlife-sav
p2666
aVred
p2667
aVtail
p2668
aVamerika
p2669
aVmiracl
p2670
aVdevelop
p2671
aVanatomi
p2672
aVdumbfound
p2673
aVintensifi
p2674
aVawkward
p2675
aVindecis
p2676
aVobject
p2677
aVrath
p2678
aVaudienc
p2679
aVfather;
p2680
aVlaryng
p2681
aVindec
p2682
aVskis;
p2683
aVschoolmat
p2684
aVteas
p2685
aVwell;
p2686
aVexamination:
p2687
aVfeal
p2688
aVgut
p2689
aVpsychic
p2690
aVcaterpillar
p2691
aVfinger
p2692
aVslattern
p2693
aV(becaus
p2694
aVvulgar
p2695
aVintegr
p2696
aVfootballmatch
p2697
aVbutter
p2698
aVoil
p2699
aV430
p2700
aVfianct
p2701
aVthousand
p2702
aVspi
p2703
aVpane
p2704
aVaquarium
p2705
aS'80'
p2706
aVleft-hand
p2707
aVinstruct
p2708
aVchess
p2709
aVflute-teach
p2710
aVreplac
p2711
aVshirk
p2712
aVdirector
p2713
aVmourn
p2714
aVrealiti
p2715
aVfashion-show:
p2716
aVkarate-teach
p2717
aVfog
p2718
aVsnowfal
p2719
aV(with
p2720
aVsuccess)
p2721
aVleading-str
p2722
aVsevic
p2723
aVexitus
p2724
aVfool
p2725
aVexempl
p2726
aVyugoslavia
p2727
aVurologist
p2728
aVreasons:
p2729
aS'22'
p2730
aVcerebr
p2731
aVpatient
p2732
aVdistast
p2733
aVtime;
p2734
aVadjoin
p2735
aVvictim
p2736
aVbowel
p2737
aVchild:
p2738
aVconsum
p2739
aVdaughter;
p2740
aVgrip
p2741
aVnudism
p2742
aVfrong-seat-passenger)
p2743
aVscrupul
p2744
aVrule
p2745
aVtotter
p2746
aVprofessor
p2747
aVjealousi
p2748
aVski-rac
p2749
aVaustrian
p2750
aVskier
p2751
aVdescend
p2752
aVproduc
p2753
aVunnecessari
p2754
aVawaken
p2755
aVdreamt
p2756
aV16-year-old
p2757
aVpiggi
p2758
aVmeantim
p2759
aVtrace
p2760
aV12-year-old
p2761
aVwon!
p2762
aVsad:
p2763
aVcancer)
p2764
aVdenounc
p2765
aVdelict
p2766
aVrous
p2767
aVpuberti
p2768
aVsmash
p2769
aVperhap
p2770
aVoversea
p2771
aVbackdoor
p2772
aVcompromis
p2773
aVfavor
p2774
aVreassur
p2775
aVspous
p2776
aVvcr
p2777
aVtemper
p2778
aVwhilst
p2779
aVacknowledg
p2780
aVeffort
p2781
aVchildish
p2782
aS'23'
p2783
aVyearr
p2784
aVrespond
p2785
aVfavour
p2786
aVrequest
p2787
aVengag
p2788
aVhorseplay
p2789
aVdebt
p2790
aVoffenc
p2791
aVbeneath
p2792
aVexasper
p2793
aVsatisfactori
p2794
aVrecently-complet
p2795
aVpasseng
p2796
aVjumbo-jet
p2797
aVacceler
p2798
aVrunway
p2799
aVtake-off
p2800
aVdefec
p2801
aVfootpath
p2802
aVbench
p2803
aVsplutter
p2804
aVsomewhat
p2805
aVbackyard
p2806
aVinciner
p2807
aVlit
p2808
aVorigin
p2809
aVblow
p2810
aVuni
p2811
aVmistreat
p2812
aV(or
p2813
aS'!)'
p2814
aVbreakfast
p2815
aVdeliber
p2816
aVmelbourn
p2817
aVinterst
p2818
aVsorri
p2819
aVmeryl
p2820
aVstreep
p2821
aVcheekbon
p2822
aVjaw
p2823
aVstructur
p2824
aVinsidi
p2825
aVshit
p2826
aVcompliment
p2827
aVtwin
p2828
aVconsist
p2829
aVfoolish
p2830
aVerror
p2831
aV(ask
p2832
aS'kg'
p2833
aVnut
p2834
aS'g)'
p2835
aVshower
p2836
aVworkmat
p2837
aVantagonist
p2838
aVliteratur
p2839
aVdrawer
p2840
aVupon
p2841
aVdurat
p2842
aVforbidden
p2843
aVscooter
p2844
aVblank
p2845
aVrip
p2846
aVpayment
p2847
aS'11'
p2848
aVoverheard
p2849
aVimpuls
p2850
aValien
p2851
aVegoist
p2852
aVpatern
p2853
aVunawar
p2854
aVmutual
p2855
aVsurf
p2856
aVwave
p2857
aV(actual
p2858
aVquickly)
p2859
aVsatisfact
p2860
aVinconsist
p2861
aVuntoward
p2862
aVworry-wort)
p2863
aVadditon
p2864
aVbrisban
p2865
aVcorner
p2866
aVrefec
p2867
aS'5c'
p2868
aVchoo-choo
p2869
aVovertur
p2870
aVusurp
p2871
aVco-own
p2872
aVpure
p2873
aVesteem
p2874
aVnuclear
p2875
aVthread
p2876
aVstir
p2877
aVvulner
p2878
aVinspir
p2879
aVfierc
p2880
aVexposeexplor
p2881
aVweaknessesfault
p2882
aVsurviv
p2883
aVhospital)
p2884
aVremov
p2885
aVawar
p2886
aVdiet
p2887
aVstrand
p2888
aVnorth
p2889
aVfraser
p2890
aVisland
p2891
aVsubmerg
p2892
aS'wd'
p2893
aVvehicl
p2894
aValow
p2895
aVillness)
p2896
aS'20'
p2897
aVgeographi
p2898
aVwasn't
p2899
aVpost-gradu
p2900
aVcrocokil
p2901
aVmotiv
p2902
aVfeat
p2903
aVentir
p2904
aValmond
p2905
aVmassiv
p2906
aV21st
p2907
aVfurther
p2908
aVwallet
p2909
aVsubordin
p2910
aVcooper
p2911
aVresolv
p2912
aVvandalist
p2913
aVlocat
p2914
aVzealand
p2915
aVexhilar
p2916
aVsceneri
p2917
aV(ie
p2918
aV5-7)
p2919
aVhike
p2920
aV5-7
p2921
aV6-8
p2922
aVoccasion
p2923
aVexclus
p2924
aVparentsfriend
p2925
aVprevious
p2926
aVbitumen
p2927
aVsemi-trail
p2928
aVtruck
p2929
aVduti
p2930
aVharm
p2931
aVend-of-semest
p2932
aVembezzel
p2933
aVpetrol
p2934
aVsuppli
p2935
aVclaim
p2936
aVcrockeri
p2937
aVfoud
p2938
aVbark
p2939
aVaustralian
p2940
aVcompetiot
p2941
aVgift
p2942
aVcheap
p2943
aVcaptain
p2944
aVrelay
p2945
aVsnob
p2946
aVshift
p2947
aVvalley
p2948
aV(for)
p2949
aVshowjump
p2950
aVbrookfield
p2951
aVsplit
p2952
aVangry:
p2953
aVdepriv
p2954
aVupset
p2955
aS'te'
p2956
aVscore
p2957
aVexpect)
p2958
aVfunction
p2959
aS'?'
p2960
aVexperiment
p2961
aVmetal
p2962
aVprotrud
p2963
aVbiscuit
p2964
aVmilo
p2965
aV(chocol
p2966
aVmilk
p2967
aVwarm)
p2968
aVconscious
p2969
aVpsychiatr
p2970
aVchildhood
p2971
aVexac
p2972
aVsomehow
p2973
aVmoder
p2974
aVjunk
p2975
aVhardwar
p2976
aV8-week
p2977
aS'py'
p2978
aV102
p2979
aVsession
p2980
aVtuesday
p2981
aVstation-mistress
p2982
aVcrimin
p2983
aVplayground
p2984
aVtutor
p2985
aV300
p2986
aVrevolt
p2987
aVthey'd
p2988
aVicc
p2989
aVcertif
p2990
aVwildest
p2991
aV(break
p2992
aVup)
p2993
aVlolli
p2994
aVvarnish
p2995
aVskip
p2996
aVtender
p2997
aVeleven
p2998
aVproceed
p2999
aVseclud
p3000
aVneighborhood
p3001
aV(recent
p3002
aVspate
p3003
aVoccurred)
p3004
aVwherebi
p3005
aV(with)
p3006
aVbelief
p3007
aVprincipl
p3008
aVwhimsi
p3009
aVbacam
p3010
aVbrief
p3011
aVweren't
p3012
aVparents'wish
p3013
aVluggag
p3014
aVfilthi
p3015
aVsend
p3016
aVtowel
p3017
aVenvelop
p3018
aVbitch
p3019
aVtart
p3020
aVearn
p3021
aVsomewher
p3022
aV(going)
p3023
aVjumper
p3024
aVcoast
p3025
aVflag
p3026
aVgold
p3027
aVessay
p3028
aVengin
p3029
aVitthem
p3030
aVpersonally)
p3031
aVmeal
p3032
aV(got
p3033
aVat)
p3034
aVlent
p3035
aVtvvideo
p3036
aVcheeki
p3037
aVhe'd
p3038
aVcabin
p3039
aVjean
p3040
aVfriends'fianct
p3041
aVcenter
p3042
aVsoembodi
p3043
aVclassifi
p3044
aVconcours
p3045
aS'p'
p3046
aVvaniti
p3047
aVasleep
p3048
aVasfixi
p3049
aVcardiac
p3050
aVtray
p3051
aVputrid
p3052
aVcatarrh
p3053
aVwhash
p3054
aVspaulo
p3055
aV(sexual)
p3056
aVshirt
p3057
aVclassroom
p3058
aVpvc
p3059
aVtile
p3060
aVmunicip
p3061
aVexcap
p3062
aVfuss
p3063
aVlapa
p3064
aVambul
p3065
aVpassag
p3066
aVluncheonett
p3067
aVjungl
p3068
aVnumber
p3069
aVverbali
p3070
aVconfus
p3071
aVcopi
p3072
aVsanatorium
p3073
aVindign
p3074
aVunimparti
p3075
aVrefere
p3076
aVbulgaria
p3077
aVbertoluchi
p3078
aVtwentieth
p3079
aVsofia
p3080
aV(girl)
p3081
aVwit
p3082
aVsadist
p3083
aVniec
p3084
aVdesign
p3085
aVfitter
p3086
aVadmitt
p3087
aVgrenad
p3088
aVcalumni
p3089
aVunrealis
p3090
aV(aviator)
p3091
aVqueensland
p3092
aV(wipe
p3093
aVself
p3094
aV(unexpected)
p3095
aVelectr
p3096
aV(electr
p3097
aVnon-smoking)
p3098
aVtog
p3099
aVtransport
p3100
aVintroduc
p3101
aVloudmouth
p3102
aVpersist
p3103
aVq'land
p3104
aVhop
p3105
aVverbal
p3106
aVakin
p3107
aVstep
p3108
aVrusti
p3109
aVnail
p3110
aVtetanus
p3111
aVpaddock
p3112
aVmalaysian
p3113
aVtheatr
p3114
aVchocol
p3115
aVpet
p3116
aVstring
p3117
aVdownstair
p3118
aVtermin
p3119
aVpregnanc
p3120
aVembark
p3121
aVanybodi
p3122
aVcruel
p3123
aVunthought
p3124
aVnicer
p3125
aVvictoria
p3126
aVimmens
p3127
aVmonday
p3128
aVbictorian
p3129
aVere
p3130
aVplacenta
p3131
aVbled
p3132
aVdiagnos
p3133
aVpalsi
p3134
aVadopt
p3135
aVaborigin
p3136
aVracism
p3137
aVever
p3138
aVspeech
p3139
aVtherapi
p3140
aVinclud
p3141
aVpromot
p3142
aVprivileg
p3143
aVguiltier
p3144
aVblock
p3145
aVdisturb
p3146
aVuncertain
p3147
aVoldest
p3148
aVsenseless
p3149
aVvandal
p3150
aVinvent
p3151
aVfictiti
p3152
aV12th
p3153
aVso-cal
p3154
aVlymph
p3155
aVgland
p3156
aVspend
p3157
aVmillion
p3158
aVmontros
p3159
aVcarpark
p3160
aVcrossroad
p3161
aVapplaud
p3162
aVbey
p3163
aVcemeteri
p3164
aVdigger
p3165
aVghost
p3166
aVzero
p3167
aVcrib
p3168
aVnegro
p3169
aVcomposit
p3170
aVjudg
p3171
aVname
p3172
aVteacher)
p3173
aVliberti
p3174
aVejacul
p3175
aVhappiest
p3176
aVthief
p3177
aVforbid
p3178
aVgun
p3179
aVvesa
p3180
aViranian
p3181
aViran
p3182
aVfix
p3183
aVilha
p3184
aVgrand
p3185
aVgreater
p3186
aS'gv'
p3187
aV(university)
p3188
aVfuvest
p3189
aVanymor
p3190
aVinsist
p3191
aVmaryhuana
p3192
aVsucced
p3193
aVdrunker
p3194
aVreprehend
p3195
aVprofession
p3196
aVvalor
p3197
aVcurious
p3198
aV(mani
p3199
aVyounger)
p3200
aVprops
p3201
aVlevel
p3202
aVdiamond
p3203
aVblue
p3204
aVwnat
p3205
aVhave:
p3206
aVcondit
p3207
aVcarnav
p3208
aVflirt
p3209
aVnervous
p3210
aVexistenti
p3211
aVrecogn
p3212
aV(as
p3213
aVdoes)
p3214
aVpaulist
p3215
aVcurt
p3216
aV(22
p3217
aV(sadness)
p3218
aVnegoti
p3219
aV(where
p3220
aVthings)
p3221
aVporno
p3222
aVphoto
p3223
aVlaw
p3224
aVinvad
p3225
aVgreatest
p3226
aVtragic
p3227
aVmoto
p3228
aVnortheast
p3229
aVcrab
p3230
aVantihygien
p3231
aVsuvenir
p3232
aVclient
p3233
aVahead
p3234
aVtransfer
p3235
aVharder
p3236
aVchief
p3237
aVexplan
p3238
aVnecess
p3239
aVgutar
p3240
aVpuc
p3241
aVfrustrat
p3242
aVthre
p3243
aVseminari
p3244
aVadolesc
p3245
aVstong
p3246
aVoblig
p3247
aVhygien
p3248
aVromanc
p3249
aVastrologyc
p3250
aVmap
p3251
aVpsychologist
p3252
aVdeepli
p3253
aVmeat
p3254
aVsteak
p3255
aV(40
p3256
aVpeople)
p3257
aVpastri
p3258
aVinstant
p3259
aVmisinterpret
p3260
aVindustri
p3261
aVpollut
p3262
aVbrasil
p3263
aVwash
p3264
aVvsp
p3265
aVbach
p3266
aVundertook
p3267
aVaxam
p3268
aVdalla
p3269
aVincomprehens
p3270
aVgooey
p3271
aVfunni
p3272
aVcommiss
p3273
aV(two
p3274
aVclassroom)
p3275
aV1011
p3276
aVhome)
p3277
aV(secret
p3278
aVgush
p3279
aVwather
p3280
aVgook
p3281
aV1283
p3282
aVbypass
p3283
aVpossess
p3284
aV(8)
p3285
aVabandon
p3286
aV(pixote)
p3287
aVsituaiton
p3288
aVinteract
p3289
aVforti
p3290
aVthrouser
p3291
aVprpare
p3292
aV24th
p3293
aVhalloween
p3294
aVwitch
p3295
aVrecord
p3296
aVdivis
p3297
aVwhre
p3298
aVdumb
p3299
aVcar)
p3300
aVbridg
p3301
aVprecipic
p3302
aVfinaci
p3303
aVlettuc
p3304
aVworms)
p3305
aVicebox
p3306
aVschoolar
p3307
aVguarusa
p3308
aVblack-out
p3309
aVparet
p3310
aVorgan
p3311
aVraio
p3312
aVaccompani
p3313
aVcoron
p3314
aVsacrific
p3315
aVextren
p3316
aVdisciplin
p3317
aVmislead
p3318
aVassur
p3319
aVplung
p3320
aVswamp
p3321
aVfetid
p3322
aVstagnant
p3323
aVrobberi
p3324
aVrecruit
p3325
aVfatti
p3326
aVloop
p3327
aVsupermarket
p3328
aVcrech
p3329
aVprecari
p3330
aVpenuri
p3331
aVconfer
p3332
aVcompat
p3333
aVpotenti
p3334
aVpregiudic
p3335
aVindiffer
p3336
aVmiseri
p3337
aVreign
p3338
aVbrazilian
p3339
aVdictatorship
p3340
aVdespoil
p3341
aVpermit
p3342
aVphase
p3343
aVviper
p3344
aVfob
p3345
aVtelegram
p3346
aVhandbag
p3347
aVflute
p3348
aVroadway
p3349
aVlap
p3350
aVpaulo
p3351
aVpublish
p3352
aVmemori
p3353
aVador
p3354
aVdetermin
p3355
aVtought
p3356
aVemployer)
p3357
aVtroublesom
p3358
aVtechniqu
p3359
aVmedit
p3360
aVconnect
p3361
aVmone
p3362
aVauthorit
p3363
aVfed
p3364
aVdont
p3365
aVcourag
p3366
aVuniverst
p3367
aVaccost
p3368
aVmess
p3369
aVhuman
p3370
aVtreasur
p3371
aVabsurd
p3372
aVphotograph
p3373
aVmaim
p3374
aVlimb
p3375
aVjustifi
p3376
aVjoiy
p3377
aVacquir
p3378
aVmororcycl
p3379
aVfahter
p3380
aVcodfish
p3381
aVsincer
p3382
aVtimid
p3383
aVsimpl
p3384
aVstereo
p3385
aVwalkman
p3386
aVexhibit
p3387
aVhandkerchief
p3388
aVcod-liv
p3389
aVprais
p3390
aVtelevis
p3391
aVgraze
p3392
aVshall
p3393
aVsuspicion
p3394
aVirrelev
p3395
aVstruggl
p3396
aVwind-surf
p3397
aVlash
p3398
aVasphixia
p3399
aVconvok
p3400
aVstroll
p3401
aVfreshman
p3402
aVinnoc
p3403
aVexalt
p3404
aVwalkway
p3405
aVfer
p3406
aVmotorcyclist
p3407
aVconced
p3408
aVwhatch
p3409
aV13th
p3410
aVperosn
p3411
aVpessimist
p3412
aVaid
p3413
aVperturb
p3414
aVduct
p3415
aVdisloy
p3416
aVdog)
p3417
aVprofit
p3418
aVmacaroni
p3419
aVsensat
p3420
aVmisl
p3421
aVperson:
p3422
aVamerican
p3423
aVnucleaar
p3424
aVmissil
p3425
aVbulgarian
p3426
aVconservatoir
p3427
aVi'll
p3428
aVsinger
p3429
aVunderestim
p3430
aVhypocrisi
p3431
aVdiscredit
p3432
aVundeserv
p3433
aVbeast
p3434
aVfulfil
p3435
aVerrand
p3436
aVimpractic
p3437
aS'ai'
p3438
aVrespect
p3439
aVrough
p3440
aVchose
p3441
aVlongest
p3442
aVrout
p3443
aVpursu
p3444
aVgipsi
p3445
aVbeetl
p3446
aVcope
p3447
aVashtray
p3448
aVplastic
p3449
aVwastepap
p3450
aVbasket
p3451
aVrow
p3452
aVwheel
p3453
aVvitosha
p3454
aVobscen
p3455
aVexceed
p3456
aVtime-limit
p3457
aVslightest
p3458
aVcontus
p3459
aVglimps
p3460
aVblack-beetl
p3461
aVsharp
p3462
aVprogress
p3463
aVteen
p3464
aVidol
p3465
aVanti
p3466
aVprotest
p3467
aVsailor
p3468
aVtexa
p3469
aVsubmarin
p3470
aVstubborn
p3471
aVproud
p3472
aVideal
p3473
aVnijmegen
p3474
aVdusgust
p3475
aVself-iterest
p3476
aVmethod
p3477
aVadvers
p3478
aVstroke
p3479
aVlearnt
p3480
aVopera
p3481
aVmotherland
p3482
aVbatter
p3483
aVunbear
p3484
aVdiscord
p3485
aVgrief
p3486
aVsorrow
p3487
aVproport
p3488
aVsunday
p3489
aVmix
p3490
aVincultiv
p3491
aVambit
p3492
aVconservatori
p3493
aVnodul
p3494
aVocclus
p3495
aVcontini
p3496
aVsuck
p3497
aVtrafic
p3498
aVpack
p3499
aVcurv
p3500
aVvisibl
p3501
aVregul
p3502
aVsnowstorm
p3503
aVspare
p3504
aVintend
p3505
aVbelov
p3506
aVculprit
p3507
aVpropos
p3508
aVaudit
p3509
aVrole
p3510
aVcompetitress
p3511
aVfolklor
p3512
aVfestiv
p3513
aVthere)
p3514
aVprotegt
p3515
aVfelow
p3516
aVfield
p3517
aVshi
p3518
aVworth
p3519
aVconductor
p3520
aVunfamiliar
p3521
aVcongratul
p3522
aVbreathless
p3523
aVinhal
p3524
aVexpert
p3525
aVblush
p3526
aVingrati
p3527
aVrank
p3528
aVfactor
p3529
aVassess
p3530
aVkeen
p3531
aVgay
p3532
aVdefect
p3533
aVadulteri
p3534
aVcom
p3535
aVincred
p3536
aVdoubl
p3537
aVpresenc
p3538
aVrate
p3539
aVhaven't
p3540
aVinstitut
p3541
aVunsult
p3542
aVtoadi
p3543
aVunworthi
p3544
aVimput
p3545
aVfurlough
p3546
aVlier
p3547
aVfawn
p3548
aVoverhast
p3549
aVrare
p3550
aVinevit
p3551
aVwherev
p3552
aVroommat
p3553
aVadvis
p3554
aVbear
p3555
aVpanic
p3556
aVsticken
p3557
aV(may
p3558
aVcommand
p3559
aVreveng
p3560
aVcell
p3561
aVlover)
p3562
aV20s
p3563
aV(older
p3564
aV30s)
p3565
aVpinch
p3566
aVmantlepiec
p3567
aV(never
p3568
aVhousekeeping)
p3569
aVcos
p3570
aVcommunion
p3571
aVmortal
p3572
aVsin
p3573
aVpicnic
p3574
aVletterbox
p3575
aVfifth
p3576
aVcanada
p3577
aVaisl
p3578
aVstaff
p3579
aVpilfer
p3580
aVbasebal
p3581
aVkorean
p3582
aVmortar
p3583
aVemploye
p3584
aVapprehend
p3585
aS'84'
p3586
aVtramp
p3587
aVpath
p3588
aVsnarl
p3589
aVlunat
p3590
aVprobat
p3591
aV4-letter
p3592
aV(roche)
p3593
aVcrutch
p3594
aVunfortun
p3595
aVsocieti
p3596
aVskunk
p3597
aVcomfid
p3598
aVbond
p3599
aVconfidenti
p3600
aVtest)
p3601
aVhassl
p3602
aVmayb
p3603
aVprecis
p3604
aVrevult
p3605
aVscoundrel
p3606
aVclass-work
p3607
aVgarment
p3608
aVreform
p3609
aVsanction
p3610
aVpreserv
p3611
aVexagger
p3612
aVcontest
p3613
aVencout
p3614
aVbenefit
p3615
aVpunch
p3616
aVcollector
p3617
aVconvey
p3618
aVinsect
p3619
aVbottom
p3620
aVarisen
p3621
aVterrif
p3622
aVcater
p3623
aVestablish
p3624
aVworthi
p3625
aVsilenc
p3626
aVpretenti
p3627
aVtheori
p3628
aVfortuit
p3629
aVsourc
p3630
aVstammer
p3631
aVforev
p3632
aVsolv
p3633
aVelementari
p3634
aVnorm
p3635
aVticket-collector
p3636
aVtrifl
p3637
aVcomparison
p3638
aVknee
p3639
aVyastrebetz
p3640
aVbelogradchik
p3641
aVdiagnosi
p3642
aVmard
p3643
aVexcel
p3644
aVpill
p3645
aVdiazepam
p3646
aVamidophen
p3647
aVsportwoman
p3648
aVunjustic
p3649
aVcowardic
p3650
aVreluct
p3651
aVsettl
p3652
aVdam
p3653
aVlake
p3654
aVstrike
p3655
aVingratitud
p3656
aVcounterfeit
p3657
aVregist
p3658
aVpreliminari
p3659
aVassembl
p3660
aVoff-hand
p3661
aVregion
p3662
aVmatern
p3663
aVunwilling
p3664
aVbyke
p3665
aVtwenti
p3666
aVheight
p3667
aVimpud
p3668
aVirrevoc
p3669
aVrelations)
p3670
aVprolong
p3671
aVrotten
p3672
aVrat
p3673
aVobstacl
p3674
aVmummi
p3675
aVlogic
p3676
aVnieghbour
p3677
aVcocktail
p3678
aVbet
p3679
aVslide
p3680
aVserial
p3681
aVhesit
p3682
aViron
p3683
aVinfring
p3684
aVordin
p3685
aVnazi
p3686
aVconcentr
p3687
aVreli
p3688
aVsociolog
p3689
aVinvestig
p3690
aVintern
p3691
aVexaminor
p3692
aVwhimsic
p3693
aVunsteadi
p3694
aVgrant
p3695
aVunprepar
p3696
aVcolloquium
p3697
aVsmaller
p3698
aVconstraint
p3699
aVkick
p3700
aVexpel
p3701
aVsightse
p3702
aVhipertonia
p3703
aVbacaus
p3704
aVimpertin
p3705
aVimmor
p3706
aVavers
p3707
aVacquaintanc
p3708
aVinfinit
p3709
aVcommon
p3710
aVfate
p3711
aVevok
p3712
aVconcret
p3713
aVseverl
p3714
aVtruli
p3715
aVhalp
p3716
aVembarass
p3717
aVmicrobiolog
p3718
aVslip
p3719
aVblurt
p3720
aVabhor
p3721
aVrud
p3722
aVnote
p3723
aVdecept
p3724
aVterrac
p3725
aVneither
p3726
aVwhatsoev
p3727
aVpharmacolog
p3728
aVprompt
p3729
aVcoleagu
p3730
aVsomething)
p3731
aVseasid
p3732
aVstadium
p3733
aVadvance)
p3734
aVverg
p3735
aVsupplementari
p3736
aVprove
p3737
aVpreparatori
p3738
aVcous
p3739
aVnow)
p3740
aVbrigad
p3741
aVsilent
p3742
aVroll-cal
p3743
aVschool-girl
p3744
aVday-dream
p3745
aVcomsomol(??)
p3746
aVmark-book
p3747
aVfloricultur
p3748
aV(this
p3749
aVone)
p3750
aVpavement
p3751
aVresist
p3752
aVunkind
p3753
aV(79)
p3754
aVparfum
p3755
aVside-issu
p3756
aVundertaken
p3757
aVgynaecolog
p3758
aVdispleas
p3759
aVmisrepres
p3760
aVmiser
p3761
aVintrud
p3762
aVchemistri
p3763
aVbourga
p3764
aVplovdiv-bourga
p3765
aVdiscontinu
p3766
aVfatigu
p3767
aVroadsid
p3768
aVtrunk
p3769
aVhamper
p3770
aVdiscountinu
p3771
aVunpass
p3772
aVpartial
p3773
aVbootlick
p3774
aVbiochemistri
p3775
aVstricken
p3776
aVeveryon
p3777
aVintellig
p3778
aVfurious
p3779
aVexarcis
p3780
aVagricultur
p3781
aVmachin
p3782
aV(who
p3783
aVgirlfriend)
p3784
aVbosom
p3785
aVdeed
p3786
aVblind
p3787
aVburn
p3788
aVmoreov
p3789
aVundon
p3790
aV(boy)
p3791
aVpluck
p3792
aVchechoslovakia
p3793
aVnag
p3794
aVcought
p3795
aVabomin
p3796
aVmerci
p3797
aVdischarg
p3798
aVnuisanc
p3799
aVeleg
p3800
aVaxcurs
p3801
aVswiss
p3802
aVcultiv
p3803
aVround
p3804
aVunconscienci
p3805
aVtome
p3806
aVbreakup
p3807
aVupsetsad
p3808
aVbegun
p3809
aVomit
p3810
aS'(5'
p3811
aVyrs)
p3812
aVhallway
p3813
aVfriendson
p3814
aVcelib
p3815
aVspiritu
p3816
aVstrict
p3817
aVprohibit
p3818
aVconvict
p3819
aVpolynesian
p3820
aVqueii
p3821
aVsquar
p3822
aVparanoid
p3823
aV(so
p3824
aVemotion)
p3825
aV(20
p3826
aVtaught
p3827
aVyrs
p3828
aVmaori
p3829
aVhousegarden
p3830
aVneattidi
p3831
aV(i'd
p3832
aV4th5th
p3833
aVgenerat
p3834
aVcoloni
p3835
aVeng)
p3836
aVdiscard
p3837
aVultim
p3838
aVsaddn
p3839
aVouting
p3840
aV(big
p3841
aVmow
p3842
aVlazer)
p3843
aVvisa
p3844
aVlord
p3845
aVgrey
p3846
aVsour
p3847
aVremuera
p3848
aS'mr'
p3849
aVfashion
p3850
aVsurgeri
p3851
aVquadrupl
p3852
aVpact
p3853
aS'nz'
p3854
aVrugbi
p3855
aVwelcom
p3856
aVindigen
p3857
aVreunit
p3858
aVeel
p3859
aVline
p3860
aVmile
p3861
aV6-12
p3862
aVmundan
p3863
aV9-5
p3864
aVunsubsid
p3865
aVdisagre
p3866
aVvice-versa
p3867
aVtempera
p3868
aVunimport
p3869
aVvideo
p3870
aV(when
p3871
aVdrink)
p3872
aVdegrad
p3873
aVmoralreligi
p3874
aV(be
p3875
aVcatholic)
p3876
aV(age
p3877
aVthey'll
p3878
aVbasketbal
p3879
aVroster
p3880
aVsystem
p3881
aVref
p3882
aVauckland
p3883
aVtraine
p3884
aVokay
p3885
aVtopic
p3886
aVpharmaci
p3887
aVtertiari
p3888
aV(reverse)
p3889
aVriver
p3890
aV(realli
p3891
aVniece)
p3892
aVunmarri
p3893
aVcatholic
p3894
aVproduct
p3895
aS'na'
p3896
aVabus
p3897
aVadvantag
p3898
aVfantasi
p3899
aVjesus
p3900
aVdaughter-in-law
p3901
aVoverpow
p3902
aVbridesmaid
p3903
aVnaughti
p3904
aVfoster
p3905
aV(1)
p3906
aV(2)
p3907
aVstep-fath
p3908
aVstepfath
p3909
aVsixth
p3910
aVsexist
p3911
aVcircl
p3912
aVcolt
p3913
aVsaddest
p3914
aVsuspected)
p3915
aVtap
p3916
aVfaulti
p3917
aVfawcet
p3918
aVrift
p3919
aVrepli
p3920
aVshe'd
p3921
aVlust
p3922
aVreciproc
p3923
aVwil
p3924
aVgirl's)
p3925
aVspace
p3926
aVitem
p3927
aVstab
p3928
aVrear
p3929
aVforgiv
p3930
aVgrace
p3931
aVcleans
p3932
aVenlighten
p3933
aVfreedom
p3934
aVbliss
p3935
aVaustralia
p3936
aVpushbik
p3937
aVvet
p3938
aV(pure
p3939
aVsexual)
p3940
aVentrust
p3941
aVchalleng
p3942
aVexcept
p3943
aVfinanci
p3944
aVtherebi
p3945
aVinher
p3946
aVethnic
p3947
aVappropri
p3948
aVemotionalspiritu
p3949
aVcontent
p3950
aVbolster
p3951
aVfran
p3952
aVgay;
p3953
aVbouncer
p3954
aVsneak
p3955
aVslimili
p3956
aVtape
p3957
aVprejud
p3958
aVcounsel
p3959
aVnorman
p3960
aVjone
p3961
aVhyster
p3962
aVparliament
p3963
aV(on
p3964
aVothers)
p3965
aVmuldoon
p3966
aVprize
p3967
aVdisregard
p3968
aVaidshomosexu
p3969
aVsibl
p3970
aVpuls
p3971
aVtham
p3972
aVfull-scal
p3973
aVbattl
p3974
aVpretti
p3975
aVnaiv
p3976
aVcrude
p3977
aVkarapiro
p3978
aVregatta
p3979
aVwe'd
p3980
aVboarder
p3981
aVburp
p3982
aVcomprehend
p3983
aVtrack-team
p3984
aVtrans-tasman
p3985
aVdesert
p3986
aVblatant
p3987
aVheadmistress
p3988
aVbulli
p3989
aVcruelli
p3990
aVnotch
p3991
aVbabysit
p3992
aVsister)
p3993
aVpolici
p3994
aVreinforc
p3995
aVmeasur
p3996
aVintermingl
p3997
aVdriveway
p3998
aVvarsiti
p3999
aVmaggott
p4000
aV(patient
p4001
aVprescrib
p4002
aVjuri
p4003
aVschizophren
p4004
aVunforgiv
p4005
aVdrag
p4006
aVindic
p4007
aVinnuendo
p4008
aVpertain
p4009
aV(ear
p4010
aVmorning)
p4011
aVdriven
p4012
aV(male)
p4013
aVpub
p4014
aVrise
p4015
aVniggl
p4016
aVsingl
p4017
aVtheme
p4018
aVdowncast
p4019
aVsydney
p4020
aVburgl
p4021
aVleukemia
p4022
aS'35'
p4023
aVwharf
p4024
aV(elderly)
p4025
aV(secretly)
p4026
aVgutter
p4027
aVannoy
p4028
aVflu
p4029
aVmanger
p4030
aVbang
p4031
aVnowher
p4032
aVgreen
p4033
aVbar-person
p4034
aVpatron
p4035
aVindefinit
p4036
aVshop-lift
p4037
aVexpound
p4038
aVesp
p4039
aV(year
p4040
aV(boyfriend)
p4041
aVmean-act
p4042
aVunwant
p4043
aVpaid
p4044
aVharrassment)
p4045
aVimplic
p4046
aVtwo-tim
p4047
aVmist
p4048
aVpeer
p4049
aVhistor
p4050
aVpolar
p4051
aV2nd
p4052
aVinebri
p4053
aVfastly-driven
p4054
aVincestu
p4055
aVtwo-year
p4056
aVabhorr
p4057
aVcarton
p4058
aVboil
p4059
aVco-work
p4060
aVsolo
p4061
aVardmor
p4062
aVkaikoh
p4063
aVgorgeous
p4064
aV(female)
p4065
aVbarrier
p4066
aVbunk
p4067
aVpredict
p4068
aVheart-rend
p4069
aV15)
p4070
aS'!!'
p4071
aVaren't
p4072
aVwhitesand
p4073
aVcool
p4074
aVsand
p4075
aVtoast
p4076
aVmarshmellow
p4077
aVopposum
p4078
aVforce-f
p4079
aVfur
p4080
aVpouch
p4081
aVjersey
p4082
aVarous
p4083
aVpesent
p4084
aVwellington
p4085
aVmonopolis
p4086
aVtchaikovsdi
p4087
aVsymphoni
p4088
aVno2
p4089
aVarthur
p4090
aVsleet-storm
p4091
aV(a)
p4092
aS'a)'
p4093
aVdocumentari
p4094
aVseal
p4095
aVclubbedspik
p4096
aVcanadian
p4097
aVseal-hunt
p4098
aVgraphic
p4099
aS'b)'
p4100
aVdisfigur
p4101
aVorphan
p4102
aVhiroshima
p4103
aVrepress
p4104
aVriot
p4105
aVnon-riot
p4106
aVso)
p4107
aVranger
p4108
aVfruit
p4109
aVdostoerski
p4110
aVthis)
p4111
aVfootstep
p4112
aVtoken
p4113
aVjar
p4114
aVadmir
p4115
aVpear
p4116
aVshape
p4117
aVcrap
p4118
aVmug
p4119
aVtractor
p4120
aVcano
p4121
aVknot
p4122
aVinterupt
p4123
aVflick
p4124
aVhomosexu
p4125
aVuntru
p4126
aS'ue'
p4127
aVaccredit
p4128
aValik
p4129
aVsuspect
p4130
aVxmas
p4131
aS'6)'
p4132
aVtext-book
p4133
aVamongst
p4134
aVstirrer
p4135
aVpakeha
p4136
aS')'
p4137
aVpunctur
p4138
aVsummon
p4139
aVjudgement
p4140
aVvirtual
p4141
aVsolo-par
p4142
aVfatten
p4143
aVcareer
p4144
aVbudgi
p4145
aVfli
p4146
aVshepherd
p4147
aVbite
p4148
aVfortunately)
p4149
aVzeeland
p4150
aVis)
p4151
aVspill
p4152
aV(white)
p4153
aVhitchhik
p4154
aVmisjudg
p4155
aVpose
p4156
aVfuneral:
p4157
aVdisast
p4158
aVbophal
p4159
aV(india)
p4160
aVseesaw
p4161
aVcoat
p4162
aVsloven
p4163
aVbenidorm
p4164
aVotherwis
p4165
aVcreepi
p4166
aVselect
p4167
aVlodger
p4168
aVdislik
p4169
aVwhatev
p4170
aVfobic
p4171
aVauditorium
p4172
aVcompliant
p4173
aV(one
p4174
aVvicin
p4175
aVidl
p4176
aVtonight
p4177
aVeindhoven
p4178
aVhernan
p4179
aVnitsch
p4180
aVwound
p4181
aVveterinarian
p4182
aVunscrew
p4183
aVbuilt
p4184
aVdandi
p4185
aVregular
p4186
aVvolleybal
p4187
aVcompetitor
p4188
aVunderw
p4189
aVdust-bin
p4190
aVmadrid
p4191
aVscenic
p4192
aVfairground
p4193
aVcountrysid
p4194
aVtie
p4195
aVinterven
p4196
aVunforgett
p4197
aVgare
p4198
aVdeplor
p4199
aVmishap
p4200
aVproposit
p4201
aVfear)
p4202
aVuefa
p4203
aVsantand
p4204
aVjail
p4205
aVinhuman
p4206
aVnetherland
p4207
aVmild
p4208
aVpolder
p4209
aVmotorbike:
p4210
aVloft
p4211
aVcolor
p4212
aVsubvers
p4213
aVelement
p4214
aVutrecht
p4215
aVsubscrib
p4216
aVcuratao
p4217
aVcrook
p4218
aVprinc
p4219
aVpopidol)
p4220
aVtens
p4221
aV(studi
p4222
aVexamination)
p4223
aVunoffici
p4224
aVden
p4225
aVhelder
p4226
aVmeat-factori
p4227
aV(physic
p4228
aVhandicapped)
p4229
aVsportshal
p4230
aVchemic
p4231
aVlaundri
p4232
aVtry)
p4233
aVromant
p4234
aVart
p4235
aVcraft
p4236
aV(boy
p4237
aV15-16
p4238
aVobligatori
p4239
aVflare
p4240
aVcoma
p4241
aVaccident)
p4242
aVbrainfunct
p4243
aVjournal
p4244
aVlay-out
p4245
aVapoplect
p4246
aVbehe
p4247
aVegg
p4248
aVstain
p4249
aVfountain-pen
p4250
aVzaire)
p4251
aVballet
p4252
aVopinion)
p4253
aVnonsen
p4254
aVlonglast
p4255
aVfulli
p4256
aVtemptat
p4257
aVcheris
p4258
aVdiari
p4259
aVsad)
p4260
aS'oh'
p4261
aVrome
p4262
aVleaf
p4263
aVoverse
p4264
aVfailures)
p4265
aVunreason
p4266
aVsubsequ
p4267
aVpowerless
p4268
aVslaughter-hous
p4269
aVbloopers:
p4270
aS'eg'
p4271
aVcoach
p4272
aVhitler
p4273
aVadepts)
p4274
aVembarrass
p4275
aValoud
p4276
aVnitht
p4277
aVexample:
p4278
aVadk
p4279
aVinflat
p4280
aVindoor-hockey
p4281
aVsalo
p4282
aVjerk
p4283
aV(230
p4284
aVam)
p4285
aVhello
p4286
aVremind
p4287
aVbleed
p4288
aVcardriv
p4289
aV(asthma)
p4290
aVsausag
p4291
aVdelici
p4292
aVcourtship
p4293
aVdemolish
p4294
aVslimi
p4295
aVaddit
p4296
aVhospital:
p4297
aVbisshop
p4298
aVter
p4299
aVschure
p4300
aVintoduc
p4301
aVdutch
p4302
aV(15
p4303
aV(secondari
p4304
aVschool)
p4305
aVenvironment
p4306
aVimit
p4307
aVissu
p4308
aV(somewhat
p4309
aVown)
p4310
aV(no
p4311
aVrelationship)
p4312
aVsartr
p4313
aV(la
p4314
aVnauste)
p4315
aVbiarritz
p4316
aVfrance)
p4317
aVdizzi
p4318
aVappeas
p4319
aVmentor
p4320
aVintroduct
p4321
aVnovic
p4322
aVstart)
p4323
aVstudent-hous
p4324
aVmuscl
p4325
aVcoincid
p4326
aVrobber
p4327
aVpick-pocket
p4328
aV(k20)
p4329
aVsoap
p4330
aVbookshop
p4331
aVopportuinti
p4332
aV1978
p4333
aVbadminton
p4334
aVracket
p4335
aVdrinknig
p4336
aVfrustat
p4337
aVfragment
p4338
aVaccidentali
p4339
aVfoil
p4340
aVdefamatori
p4341
aVjunior
p4342
aVbladder
p4343
aVrecurr
p4344
aVlovesick
p4345
aVmeddlesom
p4346
aV(four
p4347
aVage)
p4348
aVjewel
p4349
aVpiti
p4350
aVdetect
p4351
aVsooner
p4352
aVcompanion
p4353
aVfriction
p4354
aVcustodi
p4355
aVclumsi
p4356
aVbicycle-accid
p4357
aVhandlebar
p4358
aVisn't
p4359
aVreflect
p4360
aVbroadcast
p4361
aVparapsycholog
p4362
aVsri
p4363
aVlanka
p4364
aVtackel
p4365
aVimpolit
p4366
aVbrittain
p4367
aVboss'car
p4368
aVcarniv
p4369
aVcrush
p4370
aVinstac
p4371
aVevrey
p4372
aVfri
p4373
aVpan
p4374
aVhemorrhag
p4375
aVchina
p4376
aVchines
p4377
aVsolicit
p4378
aVschoolfriend
p4379
aVcrow
p4380
aVwitti
p4381
aVexperience:
p4382
aVrepuls
p4383
aVrotterdam
p4384
aVtrial
p4385
aVnijegen
p4386
aV1200
p4387
aV(around
p4388
aVmidnight)
p4389
aVfrontwindow
p4390
aVhisher
p4391
aVgermani
p4392
aVblunt
p4393
aVdenigr
p4394
aVwich
p4395
aVcourse)
p4396
aVfavorit
p4397
aVpunk-girl
p4398
aVfrump
p4399
aVyears-cours
p4400
aVslut
p4401
aVcloud-burst
p4402
aVbald
p4403
aVjewish
p4404
aVnazi-germani
p4405
aVsick-b
p4406
aVone-man
p4407
aVintention)
p4408
aVfamin
p4409
aVovertim
p4410
aVdistroy
p4411
aVirrespons
p4412
aVdriebergen
p4413
aVindia
p4414
aVindira
p4415
aVghandi)
p4416
aVhousekeep
p4417
aVchili
p4418
aVavail
p4419
aVimprtant
p4420
aVill)
p4421
aV200
p4422
aVmozart
p4423
aVpiano
p4424
aVcar-accid
p4425
aVexcrement
p4426
aVhighschool
p4427
aVcomite
p4428
aVsentenc
p4429
aVeast-germani
p4430
aVaquaint
p4431
aVglaze
p4432
aVfrost
p4433
aVpri
p4434
aVprosper
p4435
aVsurround
p4436
aVnudist-beach
p4437
aVsweet
p4438
aVruptur
p4439
aVcomputer-assign
p4440
aVhereaft
p4441
aVtatoo
p4442
aVbachelor
p4443
aVplycholog
p4444
aVthrash
p4445
aV600
p4446
aV1000
p4447
aVoverslept
p4448
aV(problem
p4449
aVrespiration)
p4450
aVconstruct
p4451
aVrefriger
p4452
aVhot
p4453
aV(behind
p4454
aVback)
p4455
aVconcid
p4456
aVstartl
p4457
aVlimburgian
p4458
aVdialect)
p4459
aVdialect
p4460
aVreserv
p4461
aVroller
p4462
aVamnesti
p4463
aVinternational:
p4464
aVlitter
p4465
aVbilliard
p4466
aVtimes)
p4467
aVchagrin
p4468
aV(fog
p4469
aVslipperiness)
p4470
aVnewcast
p4471
aS'60'
p4472
aV(food)
p4473
aV(an
p4474
aVinjection)
p4475
aV(smack
p4476
aVnicknam
p4477
aVfatsi
p4478
aVbodili
p4479
aVchoos
p4480
aVmine)
p4481
aVunlik
p4482
aVtogeht
p4483
aVhamster
p4484
aV(call
p4485
aVhannes)
p4486
aVclutch
p4487
aVway)
p4488
aVinner
p4489
aVthrush
p4490
aVvolunt
p4491
aVbiolog
p4492
aVutensil
p4493
aVamic
p4494
aVstruck
p4495
aVcubicl
p4496
aVloke
p4497
aVadjac
p4498
aVurg
p4499
aVimec
p4500
aVwore
p4501
aVgrotesqu
p4502
aVsheet
p4503
aVbeg
p4504
aVqualif
p4505
aVcontin
p4506
aVhitch
p4507
aVclose)
p4508
aVgalicia
p4509
aVpuzzl
p4510
aVimpos
p4511
aVdiall
p4512
aVcastrat
p4513
aVbeam
p4514
aVmetr
p4515
aVfart
p4516
aVunfound
p4517
aVforfeit
p4518
aVmenstrat
p4519
aVstartwar
p4520
aVdraught
p4521
aVetiopia
p4522
aVmonstrous
p4523
aV(friendly)
p4524
aVsocialist
p4525
aVgovren
p4526
aVeast
p4527
aVregistri
p4528
aVsentiment
p4529
aVtriffl
p4530
aVstake
p4531
aVdecor
p4532
aVprecious
p4533
aVsnack
p4534
aVbruis
p4535
aVprospect
p4536
aVearthquak
p4537
aVirrat
p4538
aVextermin
p4539
aVequivoc
p4540
aVdemonstrationand
p4541
aVrepres
p4542
aVinadvert
p4543
aVaddict
p4544
aVkms
p4545
aVbull
p4546
aVmous
p4547
aVrecit
p4548
aVpoem
p4549
aVobtain
p4550
aVsharpli
p4551
aVpride
p4552
aVzombi
p4553
aVgear-lev
p4554
aVholder
p4555
aVseason
p4556
aVsubway
p4557
aVlout
p4558
aVentrail
p4559
aVskull
p4560
aVit)
p4561
aVtypic
p4562
aVdisqualif
p4563
aVyourself
p4564
aVslaker
p4565
aVover-estim
p4566
aVsierra
p4567
aVnevada
p4568
aVcaress
p4569
aVswept
p4570
aVmyself)
p4571
aVheartili
p4572
aVplot
p4573
aVcrochet
p4574
aVstar
p4575
aVsky
p4576
aVextra
p4577
aVoutlandish
p4578
aVqueue
p4579
aVexpected)
p4580
aVice-cream
p4581
aVkiosqu
p4582
aVcornet
p4583
aVgreat-britain
p4584
aVrehabilit
p4585
aVbasket-bal
p4586
aVwhale-hunt
p4587
aVuneasi
p4588
aVjohnni
p4589
aVfountain
p4590
aVabsent-mind
p4591
aVdustbin
p4592
aVliquid
p4593
aVaccumul
p4594
aVfrench
p4595
aVbeco
p4596
aVobstruct
p4597
aV(x)
p4598
aVhostel
p4599
aVartist
p4600
aVovert
p4601
aVclown
p4602
aVanguish
p4603
aV-that
p4604
aVanythong
p4605
aVinappropri
p4606
aVconfirm
p4607
aVangrili
p4608
aVeducatioon
p4609
aVresid
p4610
aVinsufficiet
p4611
aVcou
p4612
aVincoher
p4613
aVbias
p4614
aV(authoritarian)
p4615
aVroast
p4616
aVcauliflow
p4617
aVsauc
p4618
aVmend
p4619
aVcrazili
p4620
aVdelinqu
p4621
aVtarget
p4622
aVbrothel
p4623
aVsarcast
p4624
aVdecapit
p4625
aVluck
p4626
aVsepart
p4627
aVdread
p4628
aVmale)
p4629
aVfrozen
p4630
aVmorocco
p4631
aVressembl
p4632
aVputrif
p4633
aVallus
p4634
aVadventur
p4635
aVcafe
p4636
aVthug
p4637
aVpeel
p4638
aVeveryday
p4639
aVthier
p4640
aVadject
p4641
aVbloodi
p4642
aVmarathon
p4643
aVtidi
p4644
aVearth
p4645
aVdistract
p4646
aVmanur
p4647
aVaffection
p4648
aVsteet
p4649
aVmexico
p4650
aVdine
p4651
aVgoodby
p4652
aVmening
p4653
aVscrubber
p4654
aVant
p4655
aVholi
p4656
aVfolder
p4657
aVspecimen
p4658
aVsomet
p4659
aVflorenc
p4660
aVwithdrawn
p4661
aVdefici
p4662
aVrapid
p4663
aVwrinkl
p4664
aVwardrob
p4665
aVsleev
p4666
aVfrieend
p4667
aVfortnight
p4668
aVgood-for-noth
p4669
aVgesticul
p4670
aVdozen
p4671
aVthiev
p4672
aVkabw
p4673
aVvan
p4674
aVmisplac
p4675
aVmister
p4676
aVsuccumb
p4677
aV25th
p4678
aVseptemb
p4679
aValloc
p4680
aVunza
p4681
aVhss
p4682
aVcompulsori
p4683
aVstep-broth
p4684
aVbedsheet
p4685
aVkitw
p4686
aVbewitch
p4687
aV1976
p4688
aS'c'
p4689
aVm160
p4690
aVdistant
p4691
aVkwatcha
p4692
aVnote-book
p4693
aVmango
p4694
aVcompound
p4695
aVdekker
p4696
aVmeasl
p4697
aVadministr
p4698
aVpend
p4699
aVbrush-off
p4700
aV-room
p4701
aVassassin
p4702
aVprime-minist
p4703
aS'tb'
p4704
aVtablet
p4705
aVwhan
p4706
aVguard-man
p4707
aVmistaken
p4708
aVfake
p4709
aVcoin
p4710
aVchrist
p4711
aVchristian
p4712
aVresum
p4713
aVunrela
p4714
aS'b+'
p4715
aVec110
p4716
aVknob
p4717
aVgranni
p4718
aVmaurin
p4719
aVanbd
p4720
aVstep-dad
p4721
aVsmooth
p4722
aVsatan
p4723
aVconsent
p4724
aVinter-hous
p4725
aVvolley-bal
p4726
aVluapula
p4727
aVyoungest
p4728
aVcomrad
p4729
aVlamp
p4730
aVwhhen
p4731
aVdean
p4732
aVpaddl
p4733
aVzipper
p4734
aVpeptalk
p4735
aVexpuls
p4736
aV(form
p4737
aVfour)
p4738
aVlawn
p4739
aVanxious
p4740
aVterrfi
p4741
aVlt2
p4742
aVreel
p4743
aVgroceri
p4744
aS'aa'
p4745
aVprotect
p4746
aVbullet
p4747
aVfeira
p4748
aVchelston
p4749
aVscrew
p4750
aVpant
p4751
aV(accidentally)
p4752
aVtough
p4753
aVforgav
p4754
aVthirti
p4755
aVquota
p4756
aVseemad
p4757
aVad
p4758
aVpantri
p4759
aVstep-mother)
p4760
aVeveyon
p4761
aVlion
p4762
aVroar
p4763
aVk150
p4764
aVper
p4765
aVlusaka
p4766
aVmongu
p4767
aVreachad
p4768
aVministri
p4769
aVestim
p4770
aVoccupi
p4771
aVquetion
p4772
aVabdomin
p4773
aVcramp
p4774
aV(g-10)
p4775
aVuth
p4776
aVc119
p4777
aV1400
p4778
aV1975
p4779
aVcapac
p4780
aVmanual
p4781
aVbarg
p4782
aVpotato
p4783
aVsoppi
p4784
aV(of
p4785
aVnest
p4786
aVthatch
p4787
aVflap
p4788
aVwing
p4789
aVdormitori
p4790
aVprefect
p4791
aVdull
p4792
aV110
p4793
aVspecifi
p4794
aVsub-quest
p4795
aS'e'
p4796
aVwoodland
p4797
aS'c+'
p4798
aVed120
p4799
aVplead
p4800
aVk10
p4801
aVhand-bag
p4802
aVsiucid
p4803
aVillegitim
p4804
aS'x'
p4805
aVovernight
p4806
aVthunder
p4807
aVbelt
p4808
aVfeac
p4809
aVcreat
p4810
aVchoclal
p4811
aVlarger
p4812
aS'ba'
p4813
aVqueer
p4814
aVmamba
p4815
aVchunk
p4816
aVdin
p4817
aVgravi
p4818
aV(bribe)
p4819
aVaskad
p4820
aVsadden
p4821
aVbribe
p4822
aVappeal
p4823
aVwithdraw
p4824
aVregistr
p4825
aVcorridor
p4826
aVcampus
p4827
aVgallow
p4828
aV(shima
p4829
aVchicken)
p4830
aViii
p4831
aVexplor
p4832
aVchipata
p4833
aVmysteri
p4834
aVgunshot
p4835
aVgate
p4836
aVmurder)
p4837
aVwedlock
p4838
aV(pass)
p4839
aVchew
p4840
aVherb
p4841
aVswollen
p4842
aVtini
p4843
aVthorn
p4844
aVenemi
p4845
aVsugar
p4846
aVvveri
p4847
aVtrigger
p4848
aVdarl
p4849
aVcompet
p4850
aVsomebobi
p4851
aVfridg
p4852
aVhoney
p4853
aV(girlfriend)
p4854
aVimpregn
p4855
aVwithdrew
p4856
aV(it
p4857
aVtavern
p4858
aVbriefli
p4859
aVoverjoy
p4860
aVabdomen
p4861
aVsupris
p4862
aVutc
p4863
aV1500
p4864
aVvital
p4865
aVpen
p4866
aVextend
p4867
aVglycerin
p4868
aVzcbc
p4869
aVndola
p4870
aVzambia
p4871
aVsubstitut
p4872
aVmishanga
p4873
aVseller
p4874
aVmere
p4875
aV1960
p4876
aVcrocodil
p4877
aVgrand-uncl
p4878
aV(secondary)
p4879
aVzesco
p4880
aVallot
p4881
aVrucher
p4882
aVworkplac
p4883
aVburglar
p4884
aVperman
p4885
aVpot
p4886
aVspectacl
p4887
aVjudgment
p4888
aVnephews)
p4889
aVeffet
p4890
aVanniversari
p4891
aVslit
p4892
aVpreson
p4893
aVsaviour
p4894
aVdisobey
p4895
aV31st
p4896
aVtamper
p4897
aVapplainc
p4898
aVmaggot
p4899
aVreturnrd
p4900
aVcreatur
p4901
aVruffian
p4902
aVcassett
p4903
aVapril
p4904
aVstuff
p4905
aVgun-point
p4906
aVbehalf
p4907
aVguidanc
p4908
aVbuis
p4909
aVcopperbelt
p4910
aVk80
p4911
aVpurchas
p4912
aVmini-bus
p4913
aVwest
p4914
aVindi
p4915
aS'pa'
p4916
aVstudyi
p4917
aVthroughout
p4918
aVbahaviour
p4919
aVshopkeep
p4920
aVmater
p4921
aVoiut
p4922
aVfare
p4923
aVaugust
p4924
aVhere;
p4925
aVberkeley
p4926
aVsoror
p4927
aVfratern
p4928
aVdiscount
p4929
aVundef
p4930
aVleagu
p4931
aV(4-0)
p4932
aVaffluenc
p4933
aVpoverti
p4934
aVperfom
p4935
aVaverag
p4936
aVmidterm
p4937
aV(chemistry)
p4938
aVoneveri
p4939
aVsouthsid
p4940
aVnorthsid
p4941
aVworkshift
p4942
aVco-op
p4943
aVswitchboard
p4944
aVraft
p4945
aVnev
p4946
aVtip
p4947
aVsunset
p4948
aVlatest
p4949
aVspell
p4950
aVcheater
p4951
aVbaptiz
p4952
aVbase
p4953
aVlos
p4954
aVangel
p4955
aVvow
p4956
aVblown
p4957
aVdevot
p4958
aVnothig
p4959
aVbanquet
p4960
aS'ma'
p4961
aVabnorm
p4962
aV1st
p4963
aVmmember
p4964
aVaward
p4965
aVco-oper
p4966
aV1980
p4967
aV20-35
p4968
aVcontroversi
p4969
aVcouter-argu
p4970
aVunknow
p4971
aVagenc
p4972
aVfriendspartn
p4973
aS'19'
p4974
aVraid
p4975
aVsupper
p4976
aVclosur
p4977
aVrogu
p4978
aVtextbook
p4979
aVflop
p4980
aVerect
p4981
aVdusti
p4982
aVwhe
p4983
aS'(2'
p4984
aVroad-block
p4985
aV(eg
p4986
aVradio)
p4987
aVinter-c
p4988
aVkapenta
p4989
aVdental
p4990
aVban
p4991
aVforthcom
p4992
aVwth
p4993
aVfishi
p4994
aVdramat
p4995
aVexpreienc
p4996
aVmortuari
p4997
aVpanti
p4998
aVdefin
p4999
aVexpos
p5000
aVscleral
p5001
aVbless
p5002
aVpg310
p5003
aV(boarding)
p5004
aVcommuniti
p5005
aVrid
p5006
aVfoetus
p5007
aVgentleman
p5008
aVfot
p5009
aVchikola
p5010
aVp110
p5011
aVhoot
p5012
aVweep
p5013
aVhimsellf
p5014
aVbus-stop
p5015
aVskirt
p5016
aVphysiolog
p5017
aS'2)'
p5018
aVimf
p5019
aVimprison
p5020
aV1968
p5021
aVtransmit
p5022
aVpreclin
p5023
aVcollaps
p5024
aVparamilitari
p5025
aVgas
p5026
aVintimid
p5027
aVgirllfriend
p5028
aVcambridg
p5029
aV(veri
p5030
aVlaboratory)
p5031
aVmock
p5032
aVexaminateur
p5033
aV(5th
p5034
aVman-hol
p5035
aVlame
p5036
aVtemporarili
p5037
aVgross
p5038
aVanf
p5039
aVtranspar
p5040
aVsyphili
p5041
aVfee
p5042
aVpresid
p5043
aVunzasu
p5044
aV(family)
p5045
aVreadili
p5046
aVpoltergist
p5047
aVmaintain
p5048
aVcue
p5049
aVmellon
p5050
aVasian
p5051
aVolymp
p5052
aV(china
p5053
aVwinning)
p5054
aVghost-lik
p5055
aVpit
p5056
aVsafe
p5057
aVstanding;
p5058
aVfeet
p5059
aVstarvat
p5060
aVaffluent
p5061
aVta
p5062
aS'b'
p5063
aVpanhandl
p5064
aVtelegraph
p5065
aVawhil
p5066
aS'hi'
p5067
aVhousesit
p5068
aValarm
p5069
aVpanick
p5070
aVcowel
p5071
aVtedious
p5072
aVfractur
p5073
aVsenil
p5074
aVdistinct
p5075
aVbare
p5076
aVbracelet
p5077
aVapt
p5078
aVroomi
p5079
aVlot)
p5080
aVhomecom
p5081
aVsan
p5082
aVdiego
p5083
aVmath
p5084
aVmom
p5085
aVgotten
p5086
aVtom
p5087
aVincom
p5088
aVfao
p5089
aVunderwear
p5090
aS'd'
p5091
aS'cs'
p5092
aV50p
p5093
aVhinder
p5094
aVdump
p5095
aVproced
p5096
aVslash
p5097
aVfurthermor
p5098
aVgambl
p5099
aVbigger
p5100
aVracial
p5101
aVslur
p5102
aVincest
p5103
aVhumor
p5104
aV(late
p5105
aV8pm)
p5106
aVrabbit
p5107
aVallerg
p5108
aVbumper
p5109
aVmorbid
p5110
aVbabysitt
p5111
aVeachoth
p5112
aVquiz
p5113
aVtickets)
p5114
aVsudi
p5115
aS'yr'
p5116
aVadjust
p5117
aVbreakdown
p5118
aS'(4'
p5119
aS'sr'
p5120
aS'hs'
p5121
aVcounselor
p5122
aVhepat
p5123
aVsensit
p5124
aVshyness
p5125
aVimprov
p5126
aVgriev
p5127
aVgalso
p5128
aVstrongest
p5129
aVlowest
p5130
aVsize
p5131
aV(6
p5132
aV5'
p5133
aV210)
p5134
aVinfo
p5135
aVboy)
p5136
aVpsych
p5137
aV140
p5138
aVplow
p5139
aVthourgh
p5140
aVbago
p5141
aVwinnebago
p5142
aVusc
p5143
aV(all
p5144
aVname)
p5145
aVbug
p5146
aVgenetic
p5147
aVdecent
p5148
aVfirecrack
p5149
aV7:00
p5150
aVpre-arrang
p5151
aVtub
p5152
aVjelli
p5153
aVbean
p5154
aVslam
p5155
aS'la'
p5156
aVucb
p5157
aVsophomor
p5158
aVstationeri
p5159
aVchico
p5160
aVwon't
p5161
aVbomb
p5162
aVtolman
p5163
aVbutt
p5164
aVmonday)
p5165
aVoutlook
p5166
aVsororoti
p5167
aVcrew
p5168
aVindirect
p5169
aVcal
p5170
aVgratifi
p5171
aVkiller
p5172
aVhenri
p5173
aVlee
p5174
aVluca
p5175
aVpeoplepress
p5176
aVanalyz
p5177
aVnewsworthi
p5178
aV(cal
p5179
aVteam)
p5180
aVaccent
p5181
aVdevis
p5182
aVelabor
p5183
aVatteck
p5184
aVcampground
p5185
aVdorm
p5186
aVpenthous
p5187
aVarchitectur
p5188
aVbuay
p5189
aVintersect
p5190
aVtheatre)
p5191
aV1bs
p5192
aVflunk
p5193
aVcia
p5194
aVnicaraguan
p5195
aVharbor
p5196
aVantiqu
p5197
aVraflect
p5198
aVtank
p5199
aVdent
p5200
aVpole
p5201
aVinterced
p5202
aVclarifi
p5203
aVuntrue)
p5204
aVflush
p5205
aVspoil
p5206
aS'uc'
p5207
aVpre-enrol
p5208
aVrecognit
p5209
aVkidnap
p5210
aVrealistically)
p5211
aVmotel
p5212
aVfeedom
p5213
aVcalifornia
p5214
aVroach
p5215
aVhousem
p5216
aVcurs
p5217
aVpump
p5218
aVoverdos
p5219
aVhabitu
p5220
aVcopul
p5221
aVinert
p5222
aVmasterb
p5223
aV(se
p5224
aVtoo)
p5225
aVdiscomfort
p5226
aS'pe'
p5227
aVinapplic
p5228
aVfoll
p5229
aVrejoin
p5230
aVsqueak
p5231
aVmake-up
p5232
aVmime
p5233
aVrecommend
p5234
aVordeal
p5235
aV(almost)
p5236
aS'21'
p5237
aVhemorhag
p5238
aVcoffin
p5239
aV380
p5240
aVrecreat
p5241
aVnecrophiliac
p5242
aVzoophiliac
p5243
aVuncomfort
p5244
aVtempl
p5245
aVnewslett
p5246
aVchamistri
p5247
aVdefi
p5248
aVwelfar
p5249
aVcupboard
p5250
aVsquaw
p5251
aVamt
p5252
aVcuddl
p5253
aVwierd
p5254
aVthumb
p5255
aVglove
p5256
aVcompart
p5257
aVchick
p5258
aV22nd
p5259
aVhorrif
p5260
aVscari
p5261
aVghostmurd
p5262
aVpseudo-girlfriend
p5263
aVthirteen
p5264
aVindividu
p5265
aVandor
p5266
aVdefenseless
p5267
aS'$'
p5268
aVjacko-lantern
p5269
aV8:00
p5270
aS'45'
p5271
aVobviusli
p5272
aVfreeway
p5273
aVdiesel
p5274
aVpick-up
p5275
aVhonda
p5276
aVboycot
p5277
aVjimmi
p5278
aVcrter
p5279
aVvivid
p5280
aS'jr'
p5281
aVschoolwork
p5282
aVcoplain
p5283
aVralli
p5284
aVsproul
p5285
aVmooni
p5286
aVcult
p5287
aVtrack
p5288
aVass-kiss
p5289
aVecon
p5290
aVinnertub
p5291
aVfoxtail
p5292
aVeyelid
p5293
aVmarriot
p5294
aVphysician
p5295
aVstyle
p5296
aVscout
p5297
aVyes
p5298
aVintact
p5299
aVmarried)
p5300
aVnarrow-minded
p5301
aVdoormat
p5302
aVunsupport
p5303
aVupstair
p5304
aVexboyfriend
p5305
aVsurrog
p5306
aVregardless
p5307
aVfilter
p5308
aVpurifi
p5309
aVlatim
p5310
aVyield
p5311
aVhighest
p5312
aVanswer)
p5313
aVlightn
p5314
aVrepaint
p5315
aVenact
p5316
aV(while
p5317
aVbonfir
p5318
aVdummi
p5319
aVcheer
p5320
aVflame
p5321
aVunload
p5322
aVhostil
p5323
aVdispat
p5324
aV(unknown
p5325
aV49er
p5326
aVnon-injuri
p5327
aVwinner
p5328
aVunclean
p5329
aVenvironments)
p5330
aVgummi
p5331
aVhyper
p5332
aVlawyer)
p5333
aV(file
p5334
aVunapp
p5335
aVexperimentor
p5336
aV(like
p5337
aVdays)
p5338
aV(i'm
p5339
aVintercollegi
p5340
aVcal)
p5341
aV1966
p5342
aVford
p5343
aVmustang
p5344
aVreplace)
p5345
aVlife-jacket
p5346
aV7:20
p5347
aS't'
p5348
aVwino
p5349
aVdependiong
p5350
aVssc
p5351
aVbsc
p5352
aVfever
p5353
aVconvuls
p5354
aV(i)
p5355
aV60%
p5356
aVresearch
p5357
aVlonavala
p5358
aVepilept
p5359
aVactress
p5360
aV(bed)
p5361
aVninth
p5362
aVus)
p5363
aVhour)
p5364
aVpre-marit
p5365
aVpasss
p5366
aVmsc
p5367
aVdeclar
p5368
aVplatform
p5369
aVhome-town
p5370
aVpoona
p5371
aVtwelveth
p5372
aVbegggar
p5373
aVsybajaj
p5374
aVtyba
p5375
aV11th
p5376
aVhigh-school
p5377
aVanaunt
p5378
aVpitch
p5379
aVbrightest
p5380
aS'l'
p5381
aVrode
p5382
aVnativ
p5383
aVtribal
p5384
aVgoddess
p5385
aVkali
p5386
aVhen
p5387
aVevenb
p5388
aVapplaus
p5389
aVmarit
p5390
aVswing
p5391
aVred-tap
p5392
aVaccquir
p5393
aVpassport
p5394
aVstrive
p5395
aV93010
p5396
aVapprehens
p5397
aVuncleani
p5398
aVbid
p5399
aVuncleanli
p5400
aVmirror
p5401
aVunpresent
p5402
aVtiss
p5403
aVkenya
p5404
aVco-resid
p5405
aVpre-univers
p5406
aVattribut
p5407
aVugc
p5408
aVfellowship
p5409
aVdelhi
p5410
aVmessi
p5411
aVbroke-down
p5412
aV(academic)
p5413
aVtopper
p5414
aVcot
p5415
aVcalcutta
p5416
aVbombay
p5417
aVmar
p5418
aVunder-gradu
p5419
aVemin
p5420
aVscientist
p5421
aVoccass
p5422
aVparalyz
p5423
aVma-i
p5424
aVmimic
p5425
aVfag
p5426
aVlegitim
p5427
aVinstal
p5428
aVmechan
p5429
aVthhe
p5430
aVgold-med
p5431
aV(three
p5432
aVgirls)
p5433
aVplacc
p5434
aVoutright
p5435
aVbitchi
p5436
aVjudo
p5437
aVsuburban
p5438
aVswifti
p5439
aVridden
p5440
aVinter-n
p5441
aVbenson
p5442
aVhedg
p5443
aVcricket
p5444
aVtrophi
p5445
aVrun-out
p5446
aVprudenti
p5447
aVwest-indi
p5448
aVchampion
p5449
aVrikshaw
p5450
aVindepend
p5451
aV70%
p5452
aVpoulat
p5453
aVself-disciplin
p5454
aVcoutri
p5455
aVsettlement
p5456
aVhumbl
p5457
aVaxe
p5458
aVmphil
p5459
aVnon-sens
p5460
aV-you
p5461
aVjoyful
p5462
aVbureaucrat
p5463
aVjaya
p5464
aVprakash
p5465
aVnarayan
p5466
aVray
p5467
aVhorizon
p5468
aVpoorest
p5469
aVinspit
p5470
aVresourc
p5471
aVutil
p5472
aVbound
p5473
aVwhistl
p5474
aV150
p5475
aVplea
p5476
aVco-passeng
p5477
aVgloom
p5478
aVhobbi
p5479
aVadmist
p5480
aV10th
p5481
aVcalam
p5482
aVpunjab
p5483
aVaspir
p5484
aVheckl
p5485
aVcircul
p5486
aVpanel
p5487
aVderiv
p5488
aVrib
p5489
aVsake
p5490
aVvolley
p5491
aVsyjc
p5492
aVdetain
p5493
aVschool-mat
p5494
aVpaddi
p5495
aVcrop
p5496
aVtthe
p5497
aVprincip
p5498
aVseve
p5499
aVmalaria
p5500
aVasthma
p5501
aVunemploy
p5502
aVprevail
p5503
aVindulg
p5504
aVdame
p5505
aS'+2'
p5506
aVprocedur
p5507
aVbrothersist
p5508
aVequal
p5509
aVjoyous
p5510
aV(part
p5511
aS'i)'
p5512
aV715%
p5513
aVdelic
p5514
aVmalawi
p5515
aVpolythecnic)
p5516
aVrejoic
p5517
aV20th
p5518
aV28th
p5519
aVformal
p5520
aVinternalis
p5521
aVbarley
p5522
aVjumb
p5523
aVasciat
p5524
aVfluid
p5525
aVtrueli
p5526
aV1972
p5527
aVhours:
p5528
aV1979
p5529
aVoffens
p5530
aVlilongw
p5531
aVdepot
p5532
aVgrnadfath
p5533
aVoesophagus
p5534
aVmce
p5535
aVprematur
p5536
aS'(7'
p5537
aVplus
p5538
aVidentif
p5539
aVmedal
p5540
aVwonderful
p5541
aVclasses)
p5542
aVpraction
p5543
aVuseless
p5544
aVpractition
p5545
aVrecagn
p5546
aVaphasia
p5547
aVlimit
p5548
aVpartion
p5549
aVtriangular
p5550
aV(orally)
p5551
aVxiith
p5552
aVadvertis
p5553
aVtybsc
p5554
aVrose-bush
p5555
aVist
p5556
aVopt
p5557
aVcolumn
p5558
aVhsc
p5559
aV9-10
p5560
aVhours)
p5561
aVtoefel
p5562
aVbluf
p5563
aVbhopal
p5564
aV(gas
p5565
aVtragedy)
p5566
aVtyphoid
p5567
aVlove-lett
p5568
aVcomper
p5569
aVthwart
p5570
aVimmobil
p5571
aVshameless
p5572
aVkanishka
p5573
aVactor
p5574
aVinter-colleg
p5575
aVdrama
p5576
aVassistat
p5577
aVmarket
p5578
aVwristwatch
p5579
aVabscenc
p5580
aVcheaper
p5581
aVplaymat
p5582
aVgraveyard
p5583
aVgripe
p5584
aVraw
p5585
aVpaw-paw
p5586
aS'1a'
p5587
aVstink
p5588
aVout-pati
p5589
aVprescript
p5590
aVdissappoint
p5591
aVrelish
p5592
aVfresh
p5593
aVappetis
p5594
aVnomin
p5595
aVcadet
p5596
aVnomine
p5597
aVkawal
p5598
aVzemba
p5599
aVreleas
p5600
aVfade
p5601
aVnoise-mak
p5602
aVheadman
p5603
aVlocker
p5604
aVrebuff
p5605
aVjohn
p5606
aVbanana
p5607
aVkasungu
p5608
aVlingadzi
p5609
aVinn
p5610
aVhyena
p5611
aVsarcasm
p5612
aVsaucer
p5613
aVred-hand
p5614
aVmaria
p5615
aVred-had
p5616
aVoctob
p5617
aVvenous
p5618
aVhenc
p5619
aVdouble-cross
p5620
aVuneduc
p5621
aVk43
p5622
aVrabid
p5623
aVpresum
p5624
aVmaiz
p5625
aVflour
p5626
aVcharm
p5627
aVblantyr
p5628
aVaunti
p5629
aVcivo
p5630
aVsam
p5631
aVmangwana
p5632
aVgum
p5633
aVboot
p5634
aVdisconight
p5635
aVsheen
p5636
aVflock
p5637
aVfoodstor
p5638
aVstinki
p5639
aVcob
p5640
aV30th
p5641
aVbarrack
p5642
aVcarefre
p5643
aVpts
p5644
aVsoemon
p5645
aVcompress
p5646
aVtoler
p5647
aV(ship
p5648
aVpython
p5649
aV(snake)
p5650
aVbaobab
p5651
aV(k10)
p5652
aVcid
p5653
aVtin
p5654
aVcheek
p5655
aVsutur
p5656
aVrobert
p5657
aVblake
p5658
aV(primary)
p5659
aValright
p5660
aVuniform
p5661
aVlump
p5662
aVnathenj
p5663
aVse
p5664
aVnkhoma
p5665
aVkwacha
p5666
aVrumba
p5667
aS'2a'
p5668
aVsyphilit
p5669
aVparaplegia
p5670
aVsore
p5671
aV5-1
p5672
aVwilliam
p5673
aVmurray
p5674
aVdefeat
p5675
aVmchesi
p5676
aVmid
p5677
aVfanta
p5678
aVzomba
p5679
aVjam
p5680
aV9th
p5681
aVcrooki
p5682
aVdodg
p5683
aVlumber
p5684
aVspinal
p5685
aVdiagnost
p5686
aVanticipatori
p5687
aVhoney-moon
p5688
aVpremis
p5689
aVpermisss
p5690
aVoccipit
p5691
aVclassnot
p5692
aVfaec
p5693
aVneglig
p5694
aVx-ray
p5695
aS'n'
p5696
aVincis
p5697
aVsurgic
p5698
aVblade
p5699
aVchilumba
p5700
aVshore
p5701
aVmail
p5702
aVmalipenga
p5703
aV(tradit
p5704
aVdance)
p5705
aVspectat
p5706
aVboma
p5707
aV(group)
p5708
aVgain
p5709
aVschool;
p5710
aS'dr'
p5711
aVmaqgda
p5712
aVfemur
p5713
aVsilver
p5714
aVstriker
p5715
aVhigh-heel
p5716
aVguilty-consci
p5717
aVpit-latrin
p5718
aVoppos
p5719
aVgrass
p5720
aVgound
p5721
aVmsce
p5722
aVunlock
p5723
aVunfortunat
p5724
aVthereaft
p5725
aVsank
p5726
aVboyfrien
p5727
aVchoir
p5728
aVfilmshow
p5729
aVinterv
p5730
aVchichiri
p5731
aVmari
p5732
aVsec
p5733
aVscholer
p5734
aVburial
p5735
aVsecodari
p5736
aVtackl
p5737
aVmoodi
p5738
aVdullest
p5739
aVkamuzu
p5740
aVk100
p5741
aVk30
p5742
aVent
p5743
aVspecialist
p5744
aS'uk'
p5745
aVentri
p5746
aVparcel
p5747
aVlean
p5748
aVslice
p5749
aVcookeri
p5750
aV630
p5751
aVpetticoat
p5752
aVtailor
p5753
aVseptic
p5754
aVcongreg
p5755
aVquietest
p5756
aV(mark)
p5757
aVpencil
p5758
aVtanzania
p5759
aVnutrit
p5760
aVcare)
p5761
aVuntim
p5762
aVtore
p5763
aVrumphi
p5764
aVincontin
p5765
aVcarter
p5766
aVadd
p5767
aVashamed;
p5768
aVeverytim
p5769
aVanaemia
p5770
aVtransfus
p5771
aVmalosa
p5772
aVyanu
p5773
aVtobacco
p5774
aVvalid
p5775
aVmisconduct
p5776
aVgule
p5777
aVwamkulu
p5778
aVsmart
p5779
aVpencil)
p5780
aVprayer
p5781
aVsweep
p5782
aVorang
p5783
aVuncov
p5784
aVmangochi
p5785
aVbuttock
p5786
aVplug
p5787
aVwhisper
p5788
aVovercook
p5789
aVlice
p5790
aVblanket
p5791
aVguilt-consci
p5792
aVflet
p5793
aVnsima
p5794
aVabut
p5795
aVinsert
p5796
aVnasogastr
p5797
aVuncoop
p5798
aV(univers
p5799
aV(parents)
p5800
aVstiiborn
p5801
aVmonth-end
p5802
aVnoon
p5803
aVconquer
p5804
aVbeij
p5805
aVnurseri
p5806
aV(present
p5807
aVparents)
p5808
aVkorea
p5809
aV(more
p5810
aVchina)
p5811
aVclassmate)
p5812
aVresident
p5813
aV(56
p5814
aVstudennt
p5815
aVdisabl
p5816
aVhappier
p5817
aVforgot)
p5818
aVcatti
p5819
aVwrit
p5820
aS'ye'
p5821
aVjiani
p5822
aVzhu
p5823
aVjianhau
p5824
aVsienc
p5825
aVscoar
p5826
aVbrave
p5827
aVhorrot
p5828
aVvietnam
p5829
aVpointless
p5830
aVsale
p5831
aVulcer
p5832
aVnap
p5833
aVbee
p5834
aVpostgradu
p5835
aVunsiut
p5836
aVlazy
p5837
aVassult
p5838
aVshame)
p5839
aVaticl
p5840
aVcrake
p5841
aVflatter
p5842
aVspan
p5843
aVshorter
p5844
aVseriously)
p5845
aVopium
p5846
aV(angri
p5847
aVcurrenc
p5848
aVyournal
p5849
aVbeggar
p5850
aVpoor)
p5851
aVtrue)
p5852
aVqueen
p5853
aVwritten)
p5854
aVlick
p5855
aVneuropsycholog
p5856
aV(tv)
p5857
aVbirthday:
p5858
aVreliabl
p5859
aVclass)
p5860
aVunconsider
p5861
aV(girl-friend?)
p5862
aV(english
p5863
aVones)
p5864
aVlectures)
p5865
aVpiblic
p5866
aVneuropsychology)
p5867
aVmisdiagnos
p5868
aVneurolog
p5869
aVsung
p5870
aV(peopl
p5871
aVlaughed)
p5872
aVtogether)
p5873
aVlasr
p5874
aViqam
p5875
aVwurm
p5876
aVchosen)
p5877
aVexamns)
p5878
aS'al'
p5879
aVhousemen
p5880
aS'ne'
p5881
aV(usual
p5882
aVbkoke
p5883
aVdriend
p5884
aVairplan
p5885
aVresprct
p5886
aVctitic
p5887
aVscenari
p5888
aVunlimit
p5889
aV(twins)
p5890
aVsametim
p5891
aVvirtuous
p5892
aVeas
p5893
aVpreach
p5894
aS'f3'
p5895
aVgospel
p5896
aVmeaningless
p5897
aVsleepi
p5898
aVlyric
p5899
aVphotocopi
p5900
aVvolum
p5901
aVhill;
p5902
aVhypocrit
p5903
aVvoluntarili
p5904
aVmid-term
p5905
aV(religi
p5906
aVactivity)
p5907
aVbibl
p5908
aVdaili
p5909
aVcandidatur
p5910
aVcumul
p5911
aVintoler
p5912
aVstairway
p5913
aVchung
p5914
aVchi
p5915
aVlaugher
p5916
aVsurvey
p5917
aVsongbook
p5918
aVaccquaint
p5919
aVunsuccess
p5920
aVident
p5921
aVmisbehaviour
p5922
aV(includ
p5923
aVfisherman
p5924
aVnet
p5925
aV$1000
p5926
aS'fb'
p5927
aS'f5'
p5928
aVpoorer
p5929
aVinstrument
p5930
aVresullt
p5931
aVorient
p5932
aVtransit
p5933
aVriski
p5934
aVinstructior
p5935
aVwooden
p5936
aVhomework;
p5937
aVdraw
p5938
aVpray
p5939
aVhapppi
p5940
aVathlet
p5941
aVcassmat
p5942
aVbarbecu
p5943
aVceas
p5944
aVdollar
p5945
aVcent
p5946
aVmailbox
p5947
aVher;
p5948
aVthank-you
p5949
aVatrophi
p5950
aVtalki
p5951
aVdogmat
p5952
aVtrembl
p5953
aVpractis
p5954
aVviolin
p5955
aVdeafen
p5956
aVstudent;
p5957
aVbook-report
p5958
aVstudet
p5959
aVself-in
p5960
aVincens
p5961
aVuniversi
p5962
aVimmigr
p5963
aVfrank
p5964
aVhero
p5965
aVvampir
p5966
aVsuspens
p5967
aVmigrat
p5968
aVobstin
p5969
aVtone
p5970
aVunintenion
p5971
aVbell
p5972
aVmajong
p5973
aVgambling)
p5974
aVdispleasur
p5975
aS'hk'
p5976
aVclosefriend
p5977
aVyoungster
p5978
aVfad
p5979
aVlucki
p5980
aVvigor
p5981
aVfragil
p5982
aVtiresom
p5983
aVwas)
p5984
aVisol
p5985
aVunstabl
p5986
aVfairi
p5987
aVtale
p5988
aVfinali
p5989
aVcanccer
p5990
aVincur
p5991
aVsuffernig
p5992
aVgpa
p5993
aVdeadlin
p5994
aVorganizor
p5995
aVponder
p5996
aVapologet
p5997
aVmrw)
p5998
aVfloor)
p5999
aVsnatch
p6000
aVstarte
p6001
aVfreeli
p6002
aVdeck
p6003
aVzip
p6004
aVflurri
p6005
aVphillipin
p6006
aVdim
p6007
aVdawn
p6008
aVdidcov
p6009
aVthay
p6010
aVflaw
p6011
aVmutter
p6012
aVscissor
p6013
aVfastidi
p6014
aS'p3'
p6015
aVhong
p6016
aVkong
p6017
aS'f4'
p6018
aVteam-mat
p6019
aV(homework
p6020
aVstructure)
p6021
aVthings;
p6022
aVrevis
p6023
aVmonetari
p6024
aVcivil
p6025
aVchyne
p6026
aVhappy;
p6027
aS'cv'
p6028
aVmainland
p6029
aVbritain
p6030
aVbaptism
p6031
aVpepol
p6032
aVbaptis
p6033
aVdeepen
p6034
aVexam)
p6035
aVgym
p6036
aVstack
p6037
aVrandom
p6038
aVterritori
p6039
aV(villages)
p6040
aVbefore)
p6041
aVinch
p6042
aVtread
p6043
aVomen
p6044
aVthen)
p6045
aVinter-depart
p6046
aVgrevianc
p6047
aVdilig
p6048
aV80%
p6049
aVbooth
p6050
aVscriptur
p6051
aVhalf-teas
p6052
aVhip
p6053
aVlovelik
p6054
aVdictat
p6055
aVcurriculum
p6056
aVsaniti
p6057
aVwoulld
p6058
aVsurnam
p6059
aVgrin
p6060
aVgradual
p6061
aVguanggho
p6062
aVdo?
p6063
aS'cu'
p6064
aVeldest
p6065
aVhung
p6066
aVgrand-daught
p6067
aVdaghter
p6068
aVtime-t
p6069
aVadapt
p6070
aVimcompet
p6071
aVgerm
p6072
a.