(dp0
S''
p1
I1141
sVfawn
p2
I0
sVfoud
p3
I0
sVfoul
p4
I0
sVfour
p5
I2
sVauthorit
p6
I0
sVhostel)
p7
I0
sVscold
p8
I1
sVlord
p9
I0
sVdisturb
p10
I1
sVprize
p11
I0
sVwooden
p12
I0
sVwednesday
p13
I1
sVrusti
p14
I1
sVrustl
p15
I2
sVseper
p16
I0
sVher;
p17
I0
sVsecond
p18
I3
sVthunder
p19
I1
sVsuccumb
p20
I0
sVspecialist
p21
I0
sVavers
p22
I0
sVhero
p23
I1
sVherb
p24
I1
sVhere
p25
I2
sVchina
p26
I1
sV(shima
p27
I0
sVdorm
p28
I1
sVreasons:
p29
I1
sVi'v
p30
I0
sVmilitari
p31
I3
sVunforgett
p32
I0
sVi'd
p33
I0
sVi'm
p34
I2
sVsightse
p35
I0
sVcontroversi
p36
I0
sVpaulist
p37
I0
sVbrought
p38
I2
sVunit
p39
I1
sVsymphoni
p40
I0
sVspoke
p41
I1
sVmusic
p42
I2
sVtelegraph
p43
I0
sVpassport
p44
I0
sVstrike
p45
I0
sVuntim
p46
I0
sVuntil
p47
I7
sVrelay
p48
I0
sVrelax
p49
I1
sVrelat
p50
I14
sVnotic
p51
I2
sVhurt
p52
I6
sVglass
p53
I3
sVholi
p54
I1
sVhole
p55
I1
sVhold
p56
I3
sVaccid
p57
I35
sVblade
p58
I1
sV(mani
p59
I1
sVlocker
p60
I0
sVpostgradu
p61
I0
sVflare
p62
I0
sS'hk'
p63
I0
sV(studi
p64
I0
sVunjust
p65
I0
sVcookeri
p66
I0
sVwant
p67
I27
sVtravel
p68
I12
sVgrand-moth
p69
I0
sVclassifi
p70
I0
sVhow
p71
I9
sVhot
p72
I0
sVhop
p73
I0
sVdecor
p74
I0
sVwrong
p75
I5
sVbeauti
p76
I0
sVvicin
p77
I0
sVhelsinki
p78
I1
sVrevolt
p79
I0
sVrevolv
p80
I0
sVchildhood
p81
I0
sV18th
p82
I0
sVdispat
p83
I0
sVwing
p84
I1
sVwind
p85
I2
sVwine
p86
I0
sVschool)
p87
I0
sVfeedback
p88
I0
sVschool;
p89
I0
sVschool:
p90
I0
sVappar
p91
I2
sV(family)
p92
I0
sVfit
p93
I1
sVapplainc
p94
I1
sVfix
p95
I0
sVdied;
p96
I0
sVworms)
p97
I0
sVhidden
p98
I1
sVfim
p99
I0
sVsurgic
p100
I1
sVinterrupt
p101
I1
sVstep-fath
p102
I0
sVrumour
p103
I3
sVrepaint
p104
I0
sVarrog
p105
I0
sVdebut
p106
I0
sVhemorrhag
p107
I1
sVunimparti
p108
I0
sVsuspens
p109
I1
sVburial
p110
I0
sV(se
p111
I0
sVgarment
p112
I0
sVspider
p113
I3
sVwe'd
p114
I0
sVfortnight
p115
I0
sVcommiss
p116
I0
sVwhip
p117
I0
sVat)
p118
I0
sVadapt
p119
I0
sVnightmar
p120
I3
sV9-10
p121
I1
sVchristma
p122
I2
sVallerg
p123
I0
sVate
p124
I0
sVdistrict
p125
I1
sVunabl
p126
I2
sVconfus
p127
I0
sVd&c
p128
I1
sVloook
p129
I0
sVwast
p130
I0
sVsub-quest
p131
I0
sVwash
p132
I0
sVinstruct
p133
I2
sVbitten
p134
I4
sVstack
p135
I0
sVsisit
p136
I0
sVmaster
p137
I3
sVbitter
p138
I0
sVlisten
p139
I2
sVguttenburg
p140
I0
sVpalsi
p141
I0
sVupsetsad
p142
I0
sVwas)
p143
I0
sVsomething)
p144
I0
sVlazer)
p145
I1
sVcrawl
p146
I3
sVcheekbon
p147
I0
sVseminari
p148
I0
sVtree
p149
I4
sVproject
p150
I0
sVsheen
p151
I1
sVentri
p152
I0
sVold)
p153
I1
sVwell;
p154
I0
sVreassur
p155
I0
sVinfring
p156
I0
sVdozen
p157
I0
sVirrevoc
p158
I0
sVdrunk)
p159
I0
sVthat
p160
I210
sVgripe
p161
I1
sVremuera
p162
I0
sVunknow
p163
I1
sVshall
p164
I0
sVobject
p165
I2
sVvictoria
p166
I0
sVmouth
p167
I0
sVaddict
p168
I1
sVletter
p169
I4
sVdrought
p170
I0
sVexpound
p171
I1
sVsinger
p172
I0
sVunpleas
p173
I0
sVprofessor
p174
I1
sVcamp
p175
I13
sVfrantoi
p176
I0
sVhospit
p177
I14
sVdummi
p178
I0
sVnineteenth
p179
I0
sVaffair)
p180
I0
sVscream
p181
I2
sVcame
p182
I38
sVindoor-hockey
p183
I0
sVboma
p184
I0
sVm160
p185
I0
sVlightn
p186
I1
sVsexist
p187
I0
sVulcer
p188
I1
sVfastly-driven
p189
I1
sVheartili
p190
I0
sVrestaur
p191
I2
sVbush
p192
I8
sVbusi
p193
I4
sVbliss
p194
I0
sVrich
p195
I0
sVmend
p196
I0
sVcodfish
p197
I0
sVplate
p198
I0
sVseclud
p199
I2
sVvener
p200
I0
sVpocket
p201
I1
sVadvisor)
p202
I0
sVpunk-girl
p203
I1
sVrelish
p204
I2
sVpiggi
p205
I0
sVboarder
p206
I0
sVsauc
p207
I0
sVwithhim
p208
I0
sVthem)
p209
I1
sVrespond
p210
I0
sVblew
p211
I1
sVfair
p212
I2
sVbled
p213
I0
sVresult
p214
I25
sVrespons
p215
I7
sVfail
p216
I17
sVbest
p217
I4
sVfigur
p218
I2
sVscore
p219
I0
sVscorn
p220
I0
sVinabl
p221
I0
sVnever
p222
I6
sVextend
p223
I0
sVseriously)
p224
I0
sVsolo-par
p225
I0
sVextent
p226
I0
sVwth
p227
I0
sVtoler
p228
I0
sVadvertis
p229
I0
sVdebt
p230
I0
sVroller
p231
I2
sVunfound
p232
I0
sVsouth-africa
p233
I0
sVaccident
p234
I1
sVunemploy
p235
I0
sVpiti
p236
I0
sVlot)
p237
I0
sVlogic
p238
I1
sVcountri
p239
I7
sVsoemon
p240
I0
sVcompromis
p241
I0
sVand
p242
I533
sVassur
p243
I0
sVvain
p244
I0
sV2nd
p245
I0
sVcult
p246
I1
sVassum
p247
I1
sVunion
p248
I0
sVfri
p249
I0
sVmuch
p250
I6
sVunjustifi
p251
I1
sVstadium
p252
I0
sVadvers
p253
I0
sVassult
p254
I0
sVhesit
p255
I0
sVlife
p256
I8
sVdistast
p257
I0
sVregul
p258
I0
sVspit
p259
I1
sVuntrue)
p260
I0
sVfortunately)
p261
I1
sVworker
p262
I0
sVwish
p263
I0
sVlift
p264
I5
sVchild
p265
I19
sVchili
p266
I0
sVdissect
p267
I3
sVcommerci
p268
I0
sVemploy
p269
I0
sVangry:
p270
I0
sVmarriag
p271
I1
sVdoormat
p272
I0
sVfeedom
p273
I0
sVsaid:
p274
I0
sVplayer
p275
I1
sVviolin
p276
I0
sVhong
p277
I0
sVradiotv
p278
I0
sV(elderly)
p279
I0
sVsplit
p280
I0
sVjungl
p281
I2
sV(due
p282
I0
sVtyphoid
p283
I0
sVrelationshop
p284
I0
sVrefil
p285
I0
sVaeroplan
p286
I1
sVsupper
p287
I0
sVstartwar
p288
I1
sVfurlough
p289
I0
sVordin
p290
I0
sVresullt
p291
I0
sVsleepi
p292
I0
sVprevious
p293
I0
sVeasi
p294
I0
sVhad
p295
I229
sVprison
p296
I0
sVfalter
p297
I0
sVhas
p298
I8
sVpreserv
p299
I1
sVdissecting-cours
p300
I0
sVbirth
p301
I3
sVshadow
p302
I2
sVopinion)
p303
I0
sV12:30
p304
I0
sVmeasur
p305
I0
sVspecif
p306
I0
sVremind
p307
I0
sVpavement
p308
I1
sVoncom
p309
I2
sVrecently-complet
p310
I0
sVwinterspr
p311
I1
sVright
p312
I6
sVold
p313
I18
sVheart-attack
p314
I1
sVcrowd
p315
I0
sVpeopli
p316
I0
sVski-rac
p317
I0
sVwitti
p318
I0
sVmalosa
p319
I0
sVfor
p320
I127
sVbottom
p321
I0
sVinhuman
p322
I0
sVolli
p323
I0
sVsyphilit
p324
I0
sVfog
p325
I0
sVfob
p326
I0
sVfom
p327
I0
sVsensibl
p328
I0
sVdental
p329
I1
sVgalso
p330
I0
sVcolleg
p331
I7
sVrebuk
p332
I0
sVpublicali
p333
I0
sVtransgress
p334
I0
sVmaqgda
p335
I0
sV(fighting)
p336
I0
sVson
p337
I3
sVmamba
p338
I1
sV40-50
p339
I0
sVsuffici
p340
I0
sVsupport
p341
I0
sVhappi
p342
I0
sVavail
p343
I0
sVspring
p344
I1
sVoffer
p345
I1
sVso)
p346
I0
sVrecommend
p347
I2
sVfastidi
p348
I0
sV(primary)
p349
I0
sVinsidi
p350
I0
sVchamistri
p351
I0
sVrattl
p352
I1
sVright)
p353
I0
sVbreak-up
p354
I0
sV150
p355
I1
sVlater
p356
I10
sVtournament
p357
I1
sVtextbook
p358
I0
sVexist
p359
I1
sVbedsheet
p360
I0
sV15)
p361
I0
sVdealer
p362
I0
sVfloor
p363
I6
sVactor
p364
I0
sVrole
p365
I1
sVsyjc
p366
I0
sVpresum
p367
I0
sVsmell
p368
I1
sVroll
p369
I3
sVlegitim
p370
I0
sVnotif
p371
I0
sVintend
p372
I0
sVdevot
p373
I0
sVintens
p374
I1
sVintent
p375
I2
sVfrieend
p376
I1
sVwarm)
p377
I0
sVcarriag
p378
I2
sVtime
p379
I71
sVpush
p380
I4
sVbreadth
p381
I1
sVchain
p382
I2
sVskate
p383
I2
sVchair
p384
I2
sVdecid
p385
I7
sVreligion
p386
I0
sVpen
p387
I0
sVde-facto
p388
I0
sVjianhau
p389
I0
sVdecis
p390
I0
sVhapppi
p391
I0
sVsplutter
p392
I0
sVvet
p393
I1
sVjerk
p394
I0
sVfawcet
p395
I0
sVchild:
p396
I0
sVspate
p397
I1
sVembark
p398
I1
sVmourn
p399
I0
sV-room
p400
I1
sVexact
p401
I0
sVpoor)
p402
I0
sVstudent-hous
p403
I1
sVtear
p404
I0
sVteas
p405
I1
sVunsupport
p406
I0
sVsubway
p407
I1
sVteam
p408
I0
sVprevent
p409
I1
sVconvok
p410
I0
sVsign
p411
I1
sVcurrenc
p412
I0
sVmelt
p413
I1
sVcurrent
p414
I1
sV300
p415
I1
sVjuri
p416
I0
sVaddress
p417
I0
sValong
p418
I13
sVbenson
p419
I0
sVref
p420
I0
sVbaobab
p421
I1
sVqueue
p422
I1
sVdusti
p423
I1
sV(pixote)
p424
I0
sVourselv
p425
I4
sVlove
p426
I17
sVobviusli
p427
I0
sVprefer
p428
I0
sVco-oper
p429
I0
sVmisus
p430
I0
sVinstac
p431
I0
sVfake
p432
I0
sVinstal
p433
I0
sVeducatioon
p434
I0
sVbloodi
p435
I0
sVnewslett
p436
I0
sVpunctur
p437
I1
sVangri
p438
I5
sVafford
p439
I0
sVpeopl
p440
I23
sVclaus
p441
I3
sVthre
p442
I0
sVbehalf
p443
I0
sVhoney
p444
I0
sVscholer
p445
I0
sVpretend
p446
I0
sVwhatev
p447
I0
sVgirllfriend
p448
I0
sVweek-end
p449
I0
sVstole
p450
I1
sVwinter
p451
I0
sVseptic
p452
I0
sVhelder
p453
I0
sVundertook
p454
I0
sVspot
p455
I1
sVlaundri
p456
I0
sVdate
p457
I1
sVsuch
p458
I3
sVsuck
p459
I2
sVmaryhuana
p460
I1
sVdata
p461
I0
sVstress
p462
I0
sVconscious
p463
I2
sS'sr'
p464
I0
sS'st'
p465
I3
sVmangl
p466
I0
sVmango
p467
I0
sS'so'
p468
I29
sVswollen
p469
I3
sVse
p470
I0
sVdrunken
p471
I1
sVfootstep
p472
I2
sVyearr
p473
I0
sVkong
p474
I0
sVtoefel
p475
I0
sVdrunker
p476
I0
sVtore
p477
I0
sVdisconnect
p478
I0
sVthumb
p479
I1
sVtorn
p480
I0
sVembezzel
p481
I0
sVhomecom
p482
I0
sVsuspicion
p483
I1
sVapron
p484
I0
sVnation
p485
I0
sVpolder
p486
I2
sVyear)
p487
I0
sVtherebi
p488
I0
sVbaby-sit
p489
I0
sVplung
p490
I0
sVamnesti
p491
I0
sVsepar
p492
I4
sVfisherman
p493
I0
sVovertur
p494
I1
sVpolit
p495
I0
sVfamal
p496
I0
sVsoembodi
p497
I0
sVco-work
p498
I0
sVprostitut
p499
I1
sVdannielsson
p500
I0
sVdumbfound
p501
I0
sVdomest
p502
I0
sVmillion
p503
I0
sVenvelop
p504
I0
sV(two
p505
I0
sVmime
p506
I0
sVplea
p507
I0
sVgrandma
p508
I0
sV(tradit
p509
I0
sVdepartur
p510
I0
sVbrasil
p511
I0
sVrecov
p512
I2
sVed120
p513
I0
sVnicknam
p514
I0
sVneglect
p515
I0
sVoper
p516
I18
sVgunshot
p517
I1
sVonc
p518
I28
sVone
p519
I115
sVnoise-mak
p520
I0
sVspanish
p521
I1
sVcollegu
p522
I0
sVopen
p523
I9
sVurin
p524
I1
sVbite
p525
I2
sVclassnot
p526
I0
sVciti
p527
I6
sS'2'
p528
I7
sVcassett
p529
I0
sVconveni
p530
I0
sVforthcom
p531
I0
sVsnatch
p532
I0
sVdisqualif
p533
I0
sVboyfriend
p534
I15
sVguinea-pig
p535
I0
sVstructure)
p536
I0
sVstammer
p537
I0
sVcowel
p538
I0
sVnuisanc
p539
I0
sVcounselor
p540
I0
sVprospect
p541
I0
sVsan
p542
I0
sVnicer
p543
I0
sV(we
p544
I1
sVargument
p545
I0
sValley
p546
I3
sVsad
p547
I2
sVsay
p548
I0
sVsaw
p549
I35
sVsat
p550
I9
sVbabysit
p551
I0
sVillness)
p552
I0
sVnote
p553
I0
sVtake
p554
I20
sVdestroy
p555
I0
sVnoth
p556
I1
sVwino
p557
I0
sVknew
p558
I10
sVcompress
p559
I0
sVabut
p560
I0
sVabus
p561
I1
sVcrochet
p562
I0
sVknee
p563
I2
sVec110
p564
I0
sVlawn
p565
I0
sVsalo
p566
I0
sVdrive
p567
I24
sVlandladi
p568
I0
sVaxe
p569
I0
sVrumphi
p570
I0
sVbehe
p571
I1
sVfriction
p572
I0
sVbright
p573
I0
sVslow
p574
I0
sVunkind
p575
I0
sVactiv
p576
I1
sVtry)
p577
I0
sVrequir
p578
I1
sV(one
p579
I1
sVartist
p580
I0
sVborrow
p581
I2
sVpriest
p582
I0
sVlandlord
p583
I1
sVwhere
p584
I16
sVxmas
p585
I0
sVsurgeri
p586
I1
sVmasseur
p587
I0
sVhepat
p588
I0
sVdeadlin
p589
I0
sVpurest
p590
I1
sVjob)
p591
I0
sVdormitori
p592
I0
sVtelevis
p593
I0
sVmooni
p594
I1
sV(villages)
p595
I0
sVbureau
p596
I0
sVmope
p597
I0
sVoverdos
p598
I0
sVjumper
p599
I0
sVgrandpar
p600
I0
sVsupermarket
p601
I0
sVspare
p602
I0
sVlife-jacket
p603
I1
sVunder-gradu
p604
I0
sVabomin
p605
I0
sVcardriv
p606
I1
sS's'
p607
I0
sVwhimsic
p608
I1
sVmani
p609
I9
sVp110
p610
I1
sVcan't
p611
I0
sVpanick
p612
I2
sVexagger
p613
I0
sVtwin
p614
I1
sVanti
p615
I0
sVboat
p616
I10
sVgood-by
p617
I0
sVwest
p618
I1
sVbreath
p619
I0
sVparanorm
p620
I1
sVthousand
p621
I0
sVcatastroph
p622
I0
sVformer
p623
I0
sVtribal
p624
I0
sV(girlfriend)
p625
I0
sVscriptur
p626
I0
sVapoplect
p627
I0
sVwritten)
p628
I0
sVpenultim
p629
I0
sVconvinc
p630
I2
sVdubious
p631
I1
sVass-kiss
p632
I0
sVpursu
p633
I3
sVcubicl
p634
I0
sVeconom
p635
I1
sVvandalist
p636
I0
sVinconsist
p637
I0
sVpreparatori
p638
I0
sVbreakdown
p639
I1
sVpornograph
p640
I0
sVdefi
p641
I0
sVstarvat
p642
I0
sVtraine
p643
I0
sVnothig
p644
I0
sVtemptat
p645
I0
sVscholarship
p646
I0
sVsummer
p647
I8
sVkawal
p648
I0
sVslime
p649
I0
sVrest
p650
I3
sVgrevianc
p651
I0
sS'(i'
p652
I6
sVinvalid
p653
I0
sS'(a'
p654
I2
sVconcentr
p655
I0
sVindulg
p656
I0
sVlittl
p657
I13
sVsilver
p658
I0
sVinstrument
p659
I0
sVexercis
p660
I0
sVjoyful
p661
I0
sVskier
p662
I0
sVrejoic
p663
I0
sVaround
p664
I13
sS'(2'
p665
I0
sVrejoin
p666
I0
sVmarshmellow
p667
I0
sS'(1'
p668
I1
sV(6
p669
I0
sS'(7'
p670
I1
sS'(4'
p671
I1
sS'(5'
p672
I0
sVdark
p673
I50
sVsnarl
p674
I1
sVtraffic
p675
I6
sVinsist
p676
I0
sVawok
p677
I1
sVdarl
p678
I0
sVworld
p679
I0
sVdare
p680
I3
sVduti
p681
I2
sVstranger
p682
I5
sVinter
p683
I1
sVmanag
p684
I2
sVauditorium
p685
I0
sVsupplementari
p686
I0
sVspectat
p687
I0
sVmuscl
p688
I1
sVsatisfactori
p689
I0
sV(becaus
p690
I0
sVracial
p691
I0
sVkwacha
p692
I0
sVcoloni
p693
I0
sVtube
p694
I1
sVlend
p695
I0
sVdefinit
p696
I0
sVplycholog
p697
I0
sVexit
p698
I1
sVrefer
p699
I0
sVpower
p700
I3
sVstong
p701
I0
sVstone
p702
I1
sVmeal
p703
I0
sVtumor
p704
I0
sVneighbor
p705
I1
sVact
p706
I3
sVscholarship)
p707
I0
sVindustri
p708
I0
sVbond
p709
I0
sVsurviv
p710
I1
sVoverpow
p711
I0
sVburglar
p712
I1
sVher
p713
I29
sV(13
p714
I0
sV(15
p715
I0
sV(17
p716
I0
sV(1)
p717
I0
sVoesophagus
p718
I0
sVbrazilian
p719
I0
sVhen
p720
I0
sVbottl
p721
I1
sVsyphili
p722
I0
sVcultiv
p723
I0
sVsnowfal
p724
I0
sVhairdress
p725
I0
sV(so
p726
I0
sVdribbl
p727
I0
sVwith
p728
I140
sVcongratul
p729
I0
sVpull
p730
I3
sVrush
p731
I2
sVdirti
p732
I1
sVrage
p733
I1
sVflirt
p734
I0
sV(patient
p735
I0
sVreprimand
p736
I2
sVpuls
p737
I1
sS'aa'
p738
I0
sVgone
p739
I13
sVad
p740
I0
sVcreat
p741
I0
sS'ai'
p742
I0
sVcertain
p743
I13
sS'am'
p744
I23
sS'al'
p745
I0
sS'an'
p746
I89
sS'as'
p747
I61
sS'at'
p748
I220
sVjohnni
p749
I0
sVcollid
p750
I2
sVdiscrimin
p751
I0
sVpuppi
p752
I0
sVtight
p753
I1
sVcollis
p754
I1
sVkabw
p755
I0
sV(left
p756
I0
sVimmens
p757
I0
sVhindranc
p758
I0
sVgenuin
p759
I0
sS'a)'
p760
I0
sVsametim
p761
I0
sVpasserbi
p762
I1
sVideasbelief
p763
I0
sVthorn
p764
I0
sVmask
p765
I0
sVmimic
p766
I0
sVmass
p767
I0
sV(it
p768
I0
sVconsider
p769
I0
sVillustr
p770
I0
sVschizophren
p771
I0
sV(ie
p772
I1
sV(in
p773
I0
sVullevi
p774
I0
sS'tv'
p775
I7
sS'to'
p776
I501
sVtail
p777
I0
sVsmile
p778
I0
sS'te'
p779
I0
sS'tb'
p780
I0
sVintroduc
p781
I2
sVta
p782
I0
sVroadway
p783
I0
sVdiari
p784
I0
sVbourga
p785
I1
sVout-pati
p786
I0
sV(i)
p787
I0
sV24th
p788
I0
sVfriendson
p789
I0
sVstrand
p790
I1
sVappart
p791
I0
sVcolleagu
p792
I1
sVsang
p793
I0
sVsand
p794
I1
sVadjust
p795
I0
sVsmall
p796
I8
sVsank
p797
I0
sV(whom
p798
I0
sVhour)
p799
I0
sVpast
p800
I2
sVpass
p801
I9
sVlying)
p802
I0
sVguanggho
p803
I0
sVsection
p804
I0
sVgood-for-noth
p805
I0
sVmethod
p806
I0
sVfull
p807
I2
sVdodg
p808
I0
sVinher
p809
I0
sVeast-germani
p810
I0
sVecstat
p811
I0
sVferry-boat
p812
I1
sVbrutal
p813
I1
sVprior
p814
I2
sVhamster
p815
I0
sVpick
p816
I4
sVaction
p817
I2
sVluck
p818
I0
sVdiamet
p819
I1
sVdepart
p820
I1
sVmagi)
p821
I0
sVbasket-bal
p822
I1
sVselect
p823
I0
sVred-hand
p824
I0
sVmaltreat
p825
I0
sVmorn
p826
I5
sVgorgeous
p827
I0
sVmore
p828
I4
sVteen
p829
I1
sVdoor
p830
I20
sVhundr
p831
I1
sVspoilt
p832
I0
sVuncov
p833
I0
sVcompani
p834
I0
sVdoom
p835
I0
sVunderw
p836
I2
sVlearn
p837
I2
sVmale
p838
I4
sVdisapprov
p839
I1
sVgallow
p840
I1
sVprompt
p841
I0
sV(with
p842
I0
sVbuis
p843
I0
sVchalleng
p844
I2
sVregistr
p845
I0
sVcheris
p846
I0
sVscrupul
p847
I0
sVautumn
p848
I2
sVist
p849
I1
sVdress
p850
I0
sVhuge
p851
I2
sVuntru
p852
I0
sV(got
p853
I0
sVdanub
p854
I0
sVburgl
p855
I1
sVsimpl
p856
I0
sV(they
p857
I0
sVplant
p858
I0
sVplane
p859
I3
sVdevelop
p860
I1
sVlanka
p861
I0
sVcircumst
p862
I0
sVeindhoven
p863
I0
sVjiani
p864
I0
sVconvuls
p865
I1
sVcigarett
p866
I1
sVstarte
p867
I0
sV(after
p868
I2
sVaccidentali
p869
I0
sVpant
p870
I0
sVfraser
p871
I1
sVpaper
p872
I6
sVpane
p873
I1
sVhousemen
p874
I0
sVcourse)
p875
I0
sVaccquaint
p876
I0
sVbypass
p877
I2
sVit)
p878
I0
sVparaplegia
p879
I0
sVfarewel
p880
I0
sVlaboratory)
p881
I1
sVradio)
p882
I0
sVeco-activist
p883
I0
sVk43
p884
I0
sV(secretly)
p885
I0
sVachiev
p886
I0
sVfound
p887
I21
sVtrnsgression
p888
I0
sVembarass
p889
I1
sVweek
p890
I11
sVengland
p891
I0
sVparfum
p892
I0
sVhainburg
p893
I0
sVexhilar
p894
I0
sVterrifi
p895
I7
sVrealli
p896
I9
sVnicaraguan
p897
I0
sVmassiv
p898
I0
sVresearch
p899
I1
sVqualifi
p900
I0
sVbelief
p901
I0
sVbeliev
p902
I3
sVgutttenburg
p903
I0
sVreproach
p904
I0
sVdriven
p905
I1
sVstruggl
p906
I0
sVbumper
p907
I0
sVmajor
p908
I0
sVforce-f
p909
I0
sVnumber
p910
I1
sVhorribl
p911
I2
sVguess
p912
I0
sVguest
p913
I0
sVrelationship
p914
I6
sVcrop
p915
I0
sVconsult
p916
I0
sVgrace
p917
I0
sVfrock
p918
I1
sViranian
p919
I0
sVfreud
p920
I0
sVovertim
p921
I0
sVfishermen
p922
I0
sVarrang
p923
I1
sVhead)
p924
I0
sVhand-mad
p925
I0
sVcomput
p926
I0
sVdefect
p927
I0
sVpedestrian
p928
I1
sVcaress
p929
I0
sVsick-b
p930
I0
sVsell
p931
I1
sVodd
p932
I1
sVself
p933
I0
sVacquaplan
p934
I1
sValso
p935
I3
sVplay
p936
I8
sVvirus
p937
I0
sVplan
p938
I6
sVscuffl
p939
I0
sVcover
p940
I4
sVabnorm
p941
I0
sVbarrel
p942
I0
sVam)
p943
I1
sVgold
p944
I1
sVugc
p945
I0
sVcrech
p946
I0
sVsession
p947
I3
sVmarriot
p948
I1
sVdriend
p949
I0
sVgooey
p950
I0
sVfactor
p951
I0
sVworry-wort)
p952
I0
sVheadmast
p953
I3
sVthey'd
p954
I0
sVexboyfriend
p955
I1
sVninth
p956
I1
sVpoltergist
p957
I1
sVsunni
p958
I0
sVindec
p959
I0
sVenemi
p960
I1
sVnowher
p961
I1
sVmanger
p962
I1
sVset
p963
I1
sV(usual
p964
I0
sVoverwhelm
p965
I1
sVsex
p966
I0
sVsee
p967
I27
sVsec
p968
I0
sVsea
p969
I6
sVpoverti
p970
I0
sVsek
p971
I0
sVoutward
p972
I0
sVshower
p973
I0
sVspiritu
p974
I1
sV(with)
p975
I0
sVcompliment
p976
I0
sVheckl
p977
I0
sVslaughter-hous
p978
I0
sV(aviator)
p979
I0
sVpre-arrang
p980
I0
sVbodi
p981
I11
sVlasr
p982
I1
sVlast
p983
I25
sVinsinu
p984
I0
sVlong-term
p985
I0
sVwhole
p986
I4
sVbecam
p987
I9
sVload
p988
I0
sVhimsellf
p989
I0
sVdrunk
p990
I9
sVloan
p991
I0
sVpepol
p992
I0
sVhyperact
p993
I0
sVbahaviour
p994
I0
sVprovok
p995
I1
sVchurch
p996
I2
sVprovoc
p997
I0
sVcommuniti
p998
I0
sVbelt
p999
I1
sVdevil
p1000
I2
sVpraction
p1001
I0
sVimplicit
p1002
I0
sVhomosexu
p1003
I0
sVdevis
p1004
I1
sVfirm
p1005
I0
sVsweetheart
p1006
I1
sVchampion
p1007
I0
sVfire
p1008
I5
sVinfect
p1009
I1
sValcool)
p1010
I1
sVfund
p1011
I0
sVeduc
p1012
I0
sVbitchi
p1013
I0
sVuncertain
p1014
I0
sVstraight
p1015
I2
sVerron
p1016
I0
sVhistor
p1017
I1
sVdurat
p1018
I1
sVerror
p1019
I0
sVoutskirt
p1020
I1
sVreal
p1021
I1
sVnitht
p1022
I0
sVmoto
p1023
I0
sVvow
p1024
I0
sVchase
p1025
I11
sVtheatre)
p1026
I0
sVirrelev
p1027
I0
sVshorter
p1028
I0
sVfunni
p1029
I0
sVzaire)
p1030
I0
sVpreclin
p1031
I0
sVclosefriend
p1032
I0
sV5-7)
p1033
I1
sValert
p1034
I1
sVrabid
p1035
I1
sV(actual
p1036
I1
sVrecent
p1037
I4
sVeleg
p1038
I0
sVcannel
p1039
I0
sVperson
p1040
I23
sVexpens
p1041
I0
sVelev
p1042
I3
sVacadem
p1043
I3
sVconstruct
p1044
I0
sVtelegram
p1045
I0
sVtin
p1046
I0
sV(university)
p1047
I0
sVeager
p1048
I0
sVsydney
p1049
I1
sVdo?
p1050
I0
sVaustralia
p1051
I1
sVtranspar
p1052
I0
sVbureaucrat
p1053
I0
sVvital
p1054
I0
sVformal
p1055
I1
sVbruis
p1056
I0
sS'd'
p1057
I1
sVgrand-uncl
p1058
I0
sVrehabilit
p1059
I1
sVencount
p1060
I2
sV(ask
p1061
I0
sVacknowledg
p1062
I0
sS'b)'
p1063
I0
sS'b+'
p1064
I0
sVsight
p1065
I1
sVpaw-paw
p1066
I0
sVcurious
p1067
I1
sVend-of-semest
p1068
I0
sVrecognit
p1069
I0
sVmortuari
p1070
I1
sVmummi
p1071
I0
sVveterinari
p1072
I0
sV(chemistry)
p1073
I0
sVchines
p1074
I0
sS'be'
p1075
I92
sS'ba'
p1076
I1
sVgrotesqu
p1077
I0
sVagreement
p1078
I0
sVcrooki
p1079
I0
sS'by'
p1080
I105
sVmateri
p1081
I1
sVmatern
p1082
I0
sVtussl
p1083
I0
sVchi
p1084
I1
sVrepair
p1085
I0
sVirrit
p1086
I0
sVinto
p1087
I47
sV(year
p1088
I0
sVoccupi
p1089
I0
sVspan
p1090
I0
sVcustom
p1091
I1
sVcheck-up
p1092
I1
sVsuit
p1093
I0
sS':'
p1094
I2
sVspat
p1095
I0
sVniece)
p1096
I0
sVzealand
p1097
I0
sVjewish
p1098
I0
sVline
p1099
I3
sV(14)
p1100
I0
sVcia
p1101
I0
sVcid
p1102
I0
sS'up'
p1103
I45
sS'us'
p1104
I20
sVintim
p1105
I0
sVmorocco
p1106
I0
sVslander
p1107
I0
sS'uk'
p1108
I0
sS'ue'
p1109
I0
sS'uc'
p1110
I1
sVsupervisor
p1111
I0
sVreconcili
p1112
I0
sVthrouser
p1113
I1
sVchap
p1114
I0
sVchat
p1115
I0
sVoverhast
p1116
I0
sVtart
p1117
I0
sVtrouser
p1118
I0
sVscrub
p1119
I1
sVcomfid
p1120
I0
sVslice
p1121
I0
sVago
p1122
I13
sVlane
p1123
I1
sVland
p1124
I2
sVage
p1125
I8
sVasphixia
p1126
I1
sVhousesit
p1127
I1
sVfresh
p1128
I0
sVhello
p1129
I1
sVessay
p1130
I0
sVpartial
p1131
I0
sV(includ
p1132
I0
sV(56
p1133
I0
sVroadsid
p1134
I0
sVreachad
p1135
I0
sVdeprecatori
p1136
I0
sVolymp
p1137
I0
sVyoung
p1138
I10
sVsend
p1139
I0
sV(now
p1140
I0
sV(not
p1141
I1
sVsens
p1142
I2
sVsent
p1143
I3
sVgarden
p1144
I1
sVaccount
p1145
I0
sVdisast
p1146
I0
sVwipe
p1147
I1
sVtri
p1148
I20
sVrecit
p1149
I0
sVdiscountinu
p1150
I0
sVharbor
p1151
I0
sVeve
p1152
I1
sVanxious
p1153
I0
sVrace
p1154
I1
sVmarri
p1155
I1
sVrack
p1156
I0
sVvehicl
p1157
I6
sVimpli
p1158
I1
sVwind-surf
p1159
I1
sVnatur
p1160
I3
sVmishap
p1161
I0
sVcrook
p1162
I0
sVvideo
p1163
I0
sVspaghetti
p1164
I0
sVapparatus
p1165
I0
sVlolli
p1166
I0
sVindian
p1167
I0
sVgynaecolog
p1168
I0
sV1400
p1169
I1
sVbird
p1170
I4
sVacccout
p1171
I0
sVtyba
p1172
I0
sVcompetitress
p1173
I1
sVlee
p1174
I1
sVleg
p1175
I10
sValcool
p1176
I0
sVpunch
p1177
I0
sVsceneri
p1178
I0
sVwoulld
p1179
I1
sVlet
p1180
I2
sVgreat
p1181
I13
sVsurvey
p1182
I0
sVdefeat
p1183
I0
sVopinion
p1184
I2
sVdisobey
p1185
I0
sVemot
p1186
I5
sVdisciplin
p1187
I0
sV(mi
p1188
I0
sVmening
p1189
I0
sVzip
p1190
I0
sVweaknessesfault
p1191
I0
sVdoubl
p1192
I1
sVtheme
p1193
I0
sVnext
p1194
I6
sVeleven
p1195
I1
sVdoubt
p1196
I2
sVpencil
p1197
I0
sVsharpli
p1198
I1
sVbabi
p1199
I5
sVhitch-hik
p1200
I1
sVrun-out
p1201
I0
sVrubbish
p1202
I0
sVgambl
p1203
I0
sVbodili
p1204
I0
sVthis
p1205
I50
sVpour
p1206
I0
sVthin
p1207
I1
sVdrill
p1208
I1
sVcoffin
p1209
I0
sVweaker
p1210
I0
sVprocess
p1211
I2
sVlock
p1212
I2
sVrode
p1213
I1
sVhigh
p1214
I6
sVslit
p1215
I0
sVbend
p1216
I2
sVslip
p1217
I1
sVcrimin
p1218
I0
sVclass)
p1219
I0
sVdelay
p1220
I2
sVfractoin
p1221
I0
sVvenous
p1222
I1
sVhonda
p1223
I1
sVinhal
p1224
I1
sVwristwatch
p1225
I2
sV(problem
p1226
I1
sVnotebook
p1227
I0
sVtwo-tim
p1228
I0
sVpuc
p1229
I0
sValloc
p1230
I0
sVdenounc
p1231
I0
sV22nd
p1232
I0
sVmundan
p1233
I1
sVserior
p1234
I0
sVelement
p1235
I0
sVissu
p1236
I0
sVwrit
p1237
I0
sVallot
p1238
I0
sVallow
p1239
I1
sVunforgiv
p1240
I0
sVmovi
p1241
I12
sVmove
p1242
I15
sV80%
p1243
I0
sVsk+vde
p1244
I0
sVperfect
p1245
I0
sVchosen
p1246
I0
sVhobbi
p1247
I0
sVelementari
p1248
I0
sVtherefor
p1249
I1
sVrecept
p1250
I0
sVprosper
p1251
I0
sVpython
p1252
I1
sVilha
p1253
I0
sVbilliard
p1254
I0
sVsnake
p1255
I10
sVkiss
p1256
I0
sVrealize
p1257
I0
sVanyth
p1258
I1
sVscenic
p1259
I1
sVharrassment)
p1260
I0
sVtruth
p1261
I0
sVbeneath
p1262
I0
sVmetr
p1263
I2
sVsocieti
p1264
I1
sVbump
p1265
I0
sVamerika
p1266
I0
sV(wipe
p1267
I1
sVq'land
p1268
I0
sVwander
p1269
I1
sVunza
p1270
I1
sVsouthsid
p1271
I1
sVindigen
p1272
I0
sVdesert
p1273
I2
sVsubmerg
p1274
I1
sVyour
p1275
I3
sVrepeat;
p1276
I0
sVmotorbike:
p1277
I1
sVrevult
p1278
I0
sVshut
p1279
I2
sVthrush
p1280
I1
sVtempl
p1281
I0
sVgraze
p1282
I0
sVsanatorium
p1283
I0
sVembarrass
p1284
I0
sVthings)
p1285
I0
sVmainland
p1286
I0
sVspill
p1287
I0
sVcould
p1288
I43
sVscari
p1289
I1
sVoutsid
p1290
I14
sVscare
p1291
I32
sVblown
p1292
I0
sVhave:
p1293
I0
sVressembl
p1294
I0
sVjesus
p1295
I0
sVchina)
p1296
I0
sVfatigu
p1297
I1
sVowner
p1298
I1
sVtrue)
p1299
I0
sVstart
p1300
I25
sVlicens
p1301
I0
sVsystem
p1302
I0
sVgay;
p1303
I1
sVbackdoor
p1304
I1
sVlonavala
p1305
I0
sVtermin
p1306
I1
sVlicenc
p1307
I2
sVunbear
p1308
I0
sVco-op
p1309
I0
sVstomach
p1310
I1
sVchagrin
p1311
I0
sVgummi
p1312
I1
sVaccompani
p1313
I0
sVk80
p1314
I0
sVhipertonia
p1315
I0
sVbother
p1316
I0
sVpsalm
p1317
I1
sVsteet
p1318
I1
sVpsycholog
p1319
I1
sVsteep
p1320
I3
sVsteer
p1321
I1
sVcounter
p1322
I0
sVyrs)
p1323
I1
sVbeggar
p1324
I0
sVterribl
p1325
I13
sVtonight
p1326
I0
sVkorean
p1327
I1
sVsoap
p1328
I0
sVrikshaw
p1329
I0
sVuntidy;
p1330
I0
sVvisa
p1331
I0
sVmedal
p1332
I0
sVinstil
p1333
I1
sVjalonen
p1334
I0
sVdivorced)
p1335
I0
sVstronger
p1336
I0
sV(from
p1337
I0
sVface
p1338
I12
sVtrampl
p1339
I1
sVex-husband
p1340
I0
sVfact
p1341
I2
sVnutrit
p1342
I0
sVbring
p1343
I3
sVbedroom
p1344
I3
sVrough
p1345
I3
sVtrivial
p1346
I0
sVseizur
p1347
I1
sVnois
p1348
I11
sVjaw
p1349
I0
sVjar
p1350
I0
sVshould
p1351
I6
sVmaggott
p1352
I0
sVgestur
p1353
I1
sVstation-mistress
p1354
I0
sVtape
p1355
I0
sVmisdiagnos
p1356
I1
sVhope
p1357
I1
sVmeant
p1358
I0
sVsatisfact
p1359
I0
sVfamiliar
p1360
I1
sVpasseng
p1361
I4
sVmalipenga
p1362
I0
sVdefenseless
p1363
I0
sVlucki
p1364
I0
sVantagonist
p1365
I1
sVsmash
p1366
I1
sVdenmark
p1367
I1
sVsummon
p1368
I2
sVdevast
p1369
I0
sVstuff
p1370
I0
sVunimport
p1371
I0
sVframe
p1372
I1
sVlazy
p1373
I0
sVpacket
p1374
I0
sVtemporarili
p1375
I0
sVbomb
p1376
I1
sVnuclear
p1377
I1
sVcowardic
p1378
I0
sVdislik
p1379
I0
sVderogatori
p1380
I0
sVdrum
p1381
I0
sVfloricultur
p1382
I0
sVdrug
p1383
I1
sVthereaft
p1384
I1
sVetc
p1385
I0
sVresprct
p1386
I0
sVvolley
p1387
I0
sS'cm'
p1388
I1
sVincest
p1389
I0
sVhandicapped)
p1390
I0
sVucb
p1391
I0
sS'cs'
p1392
I0
sS'cv'
p1393
I0
sS'cu'
p1394
I0
sVobstacl
p1395
I0
sVgenetic
p1396
I0
sVdrank
p1397
I0
sVimmedi
p1398
I1
sS'c+'
p1399
I0
sVpsychotherapist
p1400
I0
sVdeliber
p1401
I1
sVtogeth
p1402
I6
sVador
p1403
I0
sVspain
p1404
I2
sVrunway
p1405
I1
sVgambling)
p1406
I0
sVdecept
p1407
I0
sVpick-pocket
p1408
I0
sVspittl
p1409
I0
sVpurchas
p1410
I0
sVadulteri
p1411
I0
sVsad)
p1412
I0
sVsite
p1413
I1
sVlust
p1414
I0
sVincom
p1415
I0
sVsad:
p1416
I0
sVpaulo
p1417
I0
sVkapenta
p1418
I0
sVetiopia
p1419
I0
sV(while
p1420
I0
sVrealistically)
p1421
I0
sVball
p1422
I1
sVbald
p1423
I1
sVupon
p1424
I2
sVcoffe
p1425
I0
sV(way
p1426
I0
sV(call
p1427
I0
sVaudit
p1428
I1
sVoff
p1429
I20
sVshotgun
p1430
I0
sVcolour
p1431
I0
sVfeebl
p1432
I0
sVexampl
p1433
I0
sVcommand
p1434
I0
sV(also
p1435
I0
sVhousekeep
p1436
I0
sVmaggot
p1437
I0
sVroomi
p1438
I0
sVgulli
p1439
I1
sVwed
p1440
I0
sVexempl
p1441
I0
sVarrest
p1442
I0
sVhand-bag
p1443
I0
sVwet
p1444
I3
sS'5'
p1445
I8
sV(step
p1446
I1
sVscoundrel
p1447
I0
sVatrophi
p1448
I0
sVclock)
p1449
I1
sVpiec
p1450
I1
sVdiscothequ
p1451
I1
sVfive
p1452
I3
sVdesk
p1453
I1
sVbelgium
p1454
I0
sVrecurr
p1455
I0
sVplacenta
p1456
I0
sVresid
p1457
I0
sV(on
p1458
I1
sVstairway?
p1459
I0
sVcrise
p1460
I0
sV(or
p1461
I0
sVimprison
p1462
I0
sVcrisi
p1463
I0
sVvsp
p1464
I0
sVincens
p1465
I0
sVcaptur
p1466
I1
sVthief
p1467
I4
sVintoler
p1468
I0
sVdaylight
p1469
I0
sVflush
p1470
I0
sV(13-14
p1471
I0
sVthier
p1472
I0
sVnewsworthi
p1473
I0
sVthiev
p1474
I5
sVtransport
p1475
I0
sVseasid
p1476
I1
sVgun-point
p1477
I1
sVswifti
p1478
I0
sVnathenj
p1479
I0
sV(smack
p1480
I0
sVavoid
p1481
I3
sVloudmouth
p1482
I0
sVpassion
p1483
I0
sVdisbeliev
p1484
I0
sVforgiven
p1485
I0
sVpilfer
p1486
I0
sVpear
p1487
I0
sVdespoil
p1488
I0
sVnow)
p1489
I1
sVsister
p1490
I13
sVinterven
p1491
I1
sVdocumentari
p1492
I0
sVprudenti
p1493
I0
sVintoduc
p1494
I0
sVpart-tim
p1495
I0
sVassess
p1496
I0
sVlung
p1497
I1
sVincultiv
p1498
I0
sVmere
p1499
I0
sVslow-worm
p1500
I0
sVyrs
p1501
I1
sVdaughter-in-law
p1502
I0
sVmaori
p1503
I1
sVinnoc
p1504
I0
sVself-iterest
p1505
I0
sVshyness
p1506
I0
sVcount
p1507
I0
sVtennis-club
p1508
I0
sVsmooth
p1509
I0
sVtini
p1510
I0
sVotherwis
p1511
I0
sVproblem
p1512
I4
sVbaptism
p1513
I0
sVthirteen
p1514
I0
sVsiucid
p1515
I0
sVnovemb
p1516
I1
sVinn
p1517
I1
sVcarpark
p1518
I0
sVsaviour
p1519
I0
sVgossip
p1520
I0
sVrepeat
p1521
I1
sVmonday
p1522
I0
sVsemi-trail
p1523
I1
sVmisjudg
p1524
I0
sV(parent
p1525
I0
sVghost
p1526
I6
sVmozart
p1527
I0
sVrule
p1528
I0
sVpension
p1529
I0
sVabhor
p1530
I0
sVsincer
p1531
I0
sVnurseri
p1532
I0
sVabsail
p1533
I1
sVcandidatur
p1534
I0
sV(homework
p1535
I0
sVparty;
p1536
I0
sVoldest
p1537
I0
sVporno
p1538
I0
sVpunjab
p1539
I0
sVbike
p1540
I8
sVhedg
p1541
I0
sVworth
p1542
I0
sVblanket
p1543
I0
sVdistort
p1544
I0
sVchapel
p1545
I2
sVhisher
p1546
I0
sVpinch
p1547
I0
sVfootballmatch
p1548
I1
sVfaec
p1549
I0
sVmath
p1550
I2
sVrelationship)
p1551
I0
sVchew
p1552
I1
sVfranc
p1553
I2
sVconsequ
p1554
I1
sVhors
p1555
I0
sVkaikoh
p1556
I0
sV7th
p1557
I1
sVothers)
p1558
I0
sVsleet-storm
p1559
I1
sVsupervis
p1560
I0
sVamus
p1561
I1
sVlizard
p1562
I0
sVatteck
p1563
I1
sVtold
p1564
I22
sVpleasur
p1565
I0
sVdaughter
p1566
I5
sVadopt
p1567
I1
sVsmoke
p1568
I2
sVstudi
p1569
I17
sVgesticul
p1570
I0
sVlavatori
p1571
I1
sVnewspap
p1572
I1
sVattitud
p1573
I0
sVtotal
p1574
I4
sVangrili
p1575
I1
sVfountain-pen
p1576
I0
sVplot
p1577
I0
sVplow
p1578
I0
sVreprov
p1579
I0
sVlorri
p1580
I1
sVinsult
p1581
I0
sVschoolfriend
p1582
I0
sV(unpleasant)
p1583
I1
sVcottag
p1584
I2
sVtheatr
p1585
I3
sVunfortunat
p1586
I1
sVroom-mat
p1587
I0
sVreign
p1588
I0
sVword
p1589
I1
sVwore
p1590
I0
sVwork
p1591
I18
sVgrovel
p1592
I0
sVere
p1593
I0
sVwors
p1594
I1
sVpersonally)
p1595
I0
sVnovic
p1596
I0
sVflunk
p1597
I0
sVindia
p1598
I0
sVindic
p1599
I2
sVwoman
p1600
I2
sVbasebal
p1601
I0
sVgigant
p1602
I0
sVthings;
p1603
I0
sVordinari
p1604
I0
sVdisappear
p1605
I6
sVinterview
p1606
I2
sVdisappoint
p1607
I1
sVphotocopi
p1608
I0
sVbeach
p1609
I3
sVrebat
p1610
I0
sVfever
p1611
I1
sVrecogn
p1612
I0
sVladder
p1613
I4
sVafter
p1614
I50
sVcarinthia
p1615
I0
sVlay
p1616
I4
sVlaw
p1617
I1
sVlap
p1618
I0
sVdemonstr
p1619
I2
sVdomin
p1620
I0
sVhypocrit
p1621
I0
sVgreet
p1622
I0
sVdetent
p1623
I0
sVgreen
p1624
I1
sVgreec
p1625
I0
sVorder
p1626
I3
sVgreed
p1627
I0
sVincis
p1628
I1
sVincit
p1629
I0
sVdiagnos
p1630
I0
sVconsent
p1631
I0
sVoffici
p1632
I0
sVincid
p1633
I2
sVmisconduct
p1634
I0
sVice-hockey
p1635
I0
sVinadvert
p1636
I1
sVoffic
p1637
I5
sVfad
p1638
I0
sVvalor
p1639
I0
sVunsiut
p1640
I0
sVcarton
p1641
I0
sVthen
p1642
I19
sVthem
p1643
I9
sVwoken
p1644
I1
sVfragment
p1645
I0
sVsafe
p1646
I1
sVscene
p1647
I4
sVbreak
p1648
I9
sVband
p1649
I1
sVbang
p1650
I1
sVscrupl
p1651
I0
sVthey
p1652
I28
sVther
p1653
I0
sVbank
p1654
I1
sVbread
p1655
I0
sVoxygen
p1656
I0
sS'l'
p1657
I0
sVrespiration)
p1658
I1
sV(india)
p1659
I0
sV(79)
p1660
I0
sVflock
p1661
I1
sVhostel
p1662
I2
sV(a)
p1663
I0
sVdiesel
p1664
I1
sVtrafic
p1665
I0
sVforti
p1666
I1
sVbarrier
p1667
I1
sVstandard
p1668
I3
sVadmitt
p1669
I0
sS'i)'
p1670
I0
sV(an
p1671
I0
sVangl
p1672
I1
sS'+2'
p1673
I0
sVrenew
p1674
I0
sVdialect)
p1675
I0
sVsubtl
p1676
I0
sV(at
p1677
I0
sVindepend
p1678
I0
sVsienc
p1679
I0
sVstillbirth
p1680
I0
sVthick
p1681
I2
sVhemorhag
p1682
I0
sVnomin
p1683
I0
sVjohn
p1684
I0
sVtotter
p1685
I0
sVzeeland
p1686
I0
sVrebuff
p1687
I0
sVtarget
p1688
I0
sVdog)
p1689
I0
sVtavern
p1690
I0
sVhike
p1691
I1
sVrate
p1692
I0
sVmerci
p1693
I0
sVguilt
p1694
I1
sViron
p1695
I0
sVminut
p1696
I6
sVstudet
p1697
I0
sVmarstrand
p1698
I0
sVpessimist
p1699
I0
sVmanner
p1700
I1
sVsalvat
p1701
I0
sVponder
p1702
I0
sVrecreat
p1703
I0
sVterrif
p1704
I1
sVheart-rend
p1705
I0
sVcasual
p1706
I0
sVexarcis
p1707
I0
sVovertook
p1708
I0
sVforcep
p1709
I1
sVtransmit
p1710
I0
sVanatomi
p1711
I10
sVgermani
p1712
I0
sVwhat
p1713
I20
sVvolleybal
p1714
I0
sVgravi
p1715
I0
sVnegro
p1716
I0
sVphase
p1717
I0
sVhome-town
p1718
I0
sVgrave
p1719
I1
sVexcus
p1720
I0
sVfitter
p1721
I0
sVswamp
p1722
I0
sVchikola
p1723
I0
sVaunt
p1724
I1
sVpit-latrin
p1725
I0
sVoppress
p1726
I1
sVmitten
p1727
I0
sVimpolit
p1728
I0
sVover-weight
p1729
I0
sVopposit
p1730
I2
sVnephew
p1731
I0
sVinvolv
p1732
I11
sVconsolid
p1733
I0
sS'do'
p1734
I25
sVnasti
p1735
I2
sVshowjump
p1736
I0
sVhappiest
p1737
I0
sS'dr'
p1738
I0
sVgirl's)
p1739
I0
sVscrubber
p1740
I0
sVsecretari
p1741
I0
sVcleanli
p1742
I0
sVbuay
p1743
I1
sVsteak
p1744
I0
sVsteal
p1745
I1
sVimpud
p1746
I0
sVimput
p1747
I0
sVchristian
p1748
I0
sVinter-hous
p1749
I0
sVawar
p1750
I0
sVaway
p1751
I21
sVgentleman
p1752
I0
sVprops
p1753
I0
sVawak
p1754
I3
sVdrawn
p1755
I0
sVzoophiliac
p1756
I0
sS'we'
p1757
I96
sS'wd'
p1758
I1
sVmishanga
p1759
I0
sVrush-hour
p1760
I0
sVintox
p1761
I1
sVovereaten
p1762
I0
sVkitchen
p1763
I1
sVcos
p1764
I0
sVfrump
p1765
I0
sVcou
p1766
I0
sVcot
p1767
I1
sVexcrement
p1768
I0
sVhowev
p1769
I4
sVcob
p1770
I0
sVmisunderstand
p1771
I2
sVcom
p1772
I1
sVanticipatori
p1773
I0
sVtough
p1774
I0
sVjaya
p1775
I0
sVtrunk
p1776
I0
sVunrealis
p1777
I0
sVguid
p1778
I1
sVspeak
p1779
I1
sVshop-assist
p1780
I0
sVrecagn
p1781
I0
sVsubscrib
p1782
I0
sVwarmth
p1783
I0
sVovertak
p1784
I4
sVphysician
p1785
I0
sVeast
p1786
I0
sVproperti
p1787
I2
sVair
p1788
I2
sVabrupt
p1789
I0
sVanasthesia
p1790
I1
sVthrash
p1791
I1
sVaid
p1792
I1
sVvagu
p1793
I0
sVimmigr
p1794
I0
sVstink
p1795
I0
sVdizzi
p1796
I1
sVgirls)
p1797
I0
sVsticken
p1798
I1
sVsucced
p1799
I0
sVswimming-pool
p1800
I0
sVperform
p1801
I2
sVblantyr
p1802
I1
sVdescend
p1803
I0
sVwheel
p1804
I2
sVraid
p1805
I1
sVfuss
p1806
I0
sVswell
p1807
I2
sVrail
p1808
I2
sVevil
p1809
I0
sVraio
p1810
I0
sVblack-beetl
p1811
I0
sVrais
p1812
I1
sVcrockeri
p1813
I0
sVkept
p1814
I4
sV1979
p1815
I0
sV1978
p1816
I0
sV1977
p1817
I1
sV1976
p1818
I0
sV1975
p1819
I0
sVdrip
p1820
I0
sVnorvegian
p1821
I0
sVcontact
p1822
I3
sVwherebi
p1823
I0
sVdaghter
p1824
I0
sVthe
p1825
I819
sVindign
p1826
I0
sVphoto
p1827
I0
sVshort-cut
p1828
I0
sVvictim
p1829
I0
sVimpregn
p1830
I3
sVmangochi
p1831
I1
sVexpected)
p1832
I1
sVhannes)
p1833
I0
sVexalt
p1834
I0
sVshout
p1835
I5
sVspread
p1836
I1
sVboard
p1837
I4
sVmayb
p1838
I1
sVex-flatm
p1839
I0
sVleagu
p1840
I0
sVpartion
p1841
I1
sVhill;
p1842
I1
sVnight
p1843
I148
sVmanual
p1844
I0
sVborn
p1845
I1
sVbore
p1846
I0
sVhumor
p1847
I0
sVexistenti
p1848
I0
sVeleph
p1849
I2
sVovercom
p1850
I1
sVpeel
p1851
I0
sVpose
p1852
I0
sVconfer
p1853
I0
sVpeer
p1854
I0
sVpost
p1855
I0
sVabdomin
p1856
I0
sVliteratur
p1857
I0
sVunnecessari
p1858
I0
sVtrophi
p1859
I0
sVhorizon
p1860
I0
sVtetanus
p1861
I1
sVprofession
p1862
I0
sVbound
p1863
I0
sVcurios
p1864
I0
sV(when
p1865
I0
sVopportun
p1866
I0
sVtybsc
p1867
I1
sVcancer)
p1868
I0
sVfight
p1869
I13
sVway
p1870
I23
sVlovesick
p1871
I0
sVwas
p1872
I725
sVwar
p1873
I4
sVlowest
p1874
I0
sVbrainfunct
p1875
I0
sVtime-limit
p1876
I0
sV(hainburg)
p1877
I0
sVtrue
p1878
I1
sVabsent
p1879
I0
sVemin
p1880
I0
sVexperimentor
p1881
I0
sVveterinarian
p1882
I1
sVabsenc
p1883
I0
sVretir
p1884
I0
sVteacher-par
p1885
I0
sV(later
p1886
I1
sVwellpay
p1887
I0
sVprayer
p1888
I1
sVmainroad
p1889
I0
sVstake
p1890
I0
sVjone
p1891
I0
sVtest
p1892
I8
sVunwilling
p1893
I0
sVrealiti
p1894
I0
sVfot
p1895
I0
sVo'clock
p1896
I8
sVfairground
p1897
I1
sVoccasion
p1898
I0
sVcheater
p1899
I0
sV(gas
p1900
I0
sVbroke
p1901
I18
sVconsum
p1902
I0
sVmiscarriag
p1903
I1
sVvarnish
p1904
I0
sVmiddl
p1905
I14
sVzone
p1906
I1
sVflash
p1907
I1
sVclass-work
p1908
I0
sVfuvest
p1909
I0
sVterror
p1910
I1
sVemotionalspiritu
p1911
I0
sVkitten
p1912
I2
sV10-year
p1913
I0
sVtime)
p1914
I2
sVsalvador
p1915
I0
sVadministr
p1916
I0
sV12th
p1917
I0
sVreconcil
p1918
I0
sVgun
p1919
I6
sVgum
p1920
I0
sS'p'
p1921
I0
sVgut
p1922
I0
sVguy
p1923
I9
sVdiarrhoea
p1924
I0
sV(pure
p1925
I0
sVupper
p1926
I1
sVbrave
p1927
I0
sVregret
p1928
I0
sVprecipic
p1929
I1
sVeverytim
p1930
I1
sVcost
p1931
I0
sV(unexpected)
p1932
I0
sVhelpless
p1933
I0
sVk150
p1934
I0
sVappeas
p1935
I0
sVappear
p1936
I6
sVuniform
p1937
I0
sVindiffer
p1938
I0
sVappeal
p1939
I0
sV1011
p1940
I0
sVdefici
p1941
I0
sVfootbal
p1942
I2
sVsatisfi
p1943
I0
sVhadn't
p1944
I2
sVschoolmat
p1945
I0
sVteacher
p1946
I7
sVtrial
p1947
I0
sVbehav
p1948
I1
sVfilmshow
p1949
I1
sVpillow
p1950
I1
sV430
p1951
I0
sVburp
p1952
I0
sVregardless
p1953
I0
sVextra
p1954
I0
sVexasper
p1955
I0
sV(refer
p1956
I0
sVmarket
p1957
I1
sVprove
p1958
I0
sVsubvers
p1959
I0
sVlive
p1960
I17
sVjam
p1961
I1
sVsuppos
p1962
I3
sVgreat-britain
p1963
I0
sVclub
p1964
I0
sVunconsci
p1965
I1
sVenvelopp
p1966
I0
sVgraphic
p1967
I0
sVslogan
p1968
I0
sVcar
p1969
I93
sVprepar
p1970
I10
sVcap
p1971
I0
sVcat
p1972
I2
sVcan
p1973
I4
sVcal
p1974
I2
sVheart
p1975
I5
sVunderestim
p1976
I0
sVpractition
p1977
I0
sV(roche)
p1978
I0
sVdidn't
p1979
I21
sVtopic
p1980
I0
sVheard
p1981
I27
sVabort
p1982
I1
sVoccur
p1983
I4
sV6-12
p1984
I0
sVbankrupt
p1985
I1
sVwrite
p1986
I0
sVyastrebetz
p1987
I1
sVproduct
p1988
I0
sVdive
p1989
I2
sVshoplift
p1990
I1
sVsouthern
p1991
I0
sVmotorway
p1992
I2
sS'?)'
p1993
I2
sVmisrepres
p1994
I0
sVfavorit
p1995
I1
sVoffens
p1996
I0
sVcrept
p1997
I2
sVoffend
p1998
I1
sVoffenc
p1999
I1
sVapprox
p2000
I1
sVmphil
p2001
I0
sVpermisss
p2002
I1
sVcounsellor
p2003
I0
sVapprov
p2004
I0
sVau-pair-girl
p2005
I0
sVbrain
p2006
I1
sVdriving-test
p2007
I0
sVdiscont
p2008
I0
sVscoar
p2009
I0
sVcold
p2010
I2
sVstill
p2011
I9
sVno2
p2012
I0
sV(x)
p2013
I0
sVwindow
p2014
I13
sVwon!
p2015
I0
sVconcert5
p2016
I0
sVnorway
p2017
I0
sV(file
p2018
I0
sVejacul
p2019
I0
sVhalp
p2020
I0
sVnon
p2021
I0
sVevok
p2022
I1
sVrecal
p2023
I3
sVdisloy
p2024
I0
sVhalf
p2025
I1
sVnot
p2026
I115
sVcourtship
p2027
I0
sVnow
p2028
I3
sVdiscuss
p2029
I1
sVnor
p2030
I0
sVreluct
p2031
I0
sVlier
p2032
I0
sVbirthday:
p2033
I0
sVservant
p2034
I2
sVdrop
p2035
I2
sVghostmurd
p2036
I1
sVmagazin
p2037
I0
sVstockholm
p2038
I2
sVjanuari
p2039
I0
sVkerb
p2040
I0
sVcourag
p2041
I1
sV(unknown
p2042
I0
sS'el'
p2043
I0
sVreplac
p2044
I0
sS'eg'
p2045
I1
sVcar)
p2046
I1
sS'ex'
p2047
I0
sVyear
p2048
I47
sVresourc
p2049
I0
sVhappen
p2050
I14
sVshown
p2051
I1
sVaccomplish
p2052
I0
sVspace
p2053
I0
sVadepts)
p2054
I0
sVargu
p2055
I0
sVcompulsori
p2056
I0
sVphillipin
p2057
I1
sVcard
p2058
I1
sVcare
p2059
I4
sVzig-zag
p2060
I1
sVhonest
p2061
I0
sVprofess
p2062
I0
sVblind
p2063
I1
sVrelatioship
p2064
I0
sVyourself
p2065
I0
sV(redemptist
p2066
I0
sVring
p2067
I2
sVdrove
p2068
I7
sVsize
p2069
I0
sVsheer
p2070
I0
sVsheet
p2071
I1
sVsilent
p2072
I1
sVcircles;
p2073
I0
sVcaught
p2074
I21
sVeachoth
p2075
I1
sVsilenc
p2076
I1
sVcumul
p2077
I0
sVtragic
p2078
I0
sVslaker
p2079
I0
sVencout
p2080
I0
sVfriend
p2081
I88
sVthaw
p2082
I0
sVespeci
p2083
I1
sVthay
p2084
I0
sVthan
p2085
I4
sVtham
p2086
I0
sVcrack
p2087
I1
sVrecruit
p2088
I0
sVdelic
p2089
I0
sVangel
p2090
I1
sVslap
p2091
I0
sV(and
p2092
I1
sV13th
p2093
I1
sVslam
p2094
I0
sVdeliv
p2095
I0
sVanger
p2096
I0
sVbreakfast
p2097
I0
sVloke
p2098
I0
sVdoorbel
p2099
I2
sVengin
p2100
I0
sVsnout
p2101
I1
sVbegin
p2102
I1
sVnauste)
p2103
I0
sVprice
p2104
I0
sVamerica
p2105
I1
sVegg
p2106
I0
sVbertoluchi
p2107
I0
sVverbali
p2108
I0
sVtooth
p2109
I2
sVmeanwhil
p2110
I0
sV(eg
p2111
I0
sVsunset
p2112
I0
sVsteadi
p2113
I1
sVgerman
p2114
I1
sVinnertub
p2115
I0
sVso-cal
p2116
I0
sVgeographi
p2117
I0
sVfemur
p2118
I0
sVfifth
p2119
I1
sVground
p2120
I1
sVonli
p2121
I15
sVsnack
p2122
I0
sVstair
p2123
I3
sVcucumb
p2124
I0
sVsierra
p2125
I1
sVstain
p2126
I0
sVbrittain
p2127
I1
sVcannot
p2128
I0
sVtruffaut
p2129
I0
sVstroll
p2130
I1
sVtruli
p2131
I0
sVleather
p2132
I0
sVhostil
p2133
I0
sVfriends)
p2134
I0
sVhusband
p2135
I8
sVbulgaria
p2136
I0
sVconcert
p2137
I0
sVburst
p2138
I1
sVquestionnair
p2139
I1
sV(this
p2140
I0
sVasleep
p2141
I2
sVsport
p2142
I2
sVconcern
p2143
I0
sVglaze
p2144
I1
sS'3'
p2145
I2
sVbetween
p2146
I5
sVimport
p2147
I7
sVpluck
p2148
I0
sVblame
p2149
I0
sVharrass
p2150
I1
sVmeasl
p2151
I1
sVmone
p2152
I1
sVpertain
p2153
I0
sVmonk
p2154
I0
sVnearbi
p2155
I5
sVtutori
p2156
I3
sVfinaci
p2157
I0
sVfour)
p2158
I1
sVexploit
p2159
I0
sVpesent
p2160
I0
sVcouldn't
p2161
I3
sVdamag
p2162
I2
sVluncheonett
p2163
I0
sVoverjoy
p2164
I0
sVthesi
p2165
I1
sV4-5
p2166
I0
sVdiagnost
p2167
I0
sVthese
p2168
I1
sVsportshal
p2169
I0
sVtrick
p2170
I0
sVcare)
p2171
I0
sVmucus
p2172
I1
sVsoil
p2173
I1
sVhenc
p2174
I1
sVworri
p2175
I2
sVbias
p2176
I0
sVkenya
p2177
I0
sVinquiri
p2178
I0
sVmedia
p2179
I0
sVmedic
p2180
I2
sVdocument
p2181
I1
sVmedit
p2182
I0
sVfinish
p2183
I3
sVclosest
p2184
I1
sVsomeon
p2185
I35
sVfruit
p2186
I0
sVaphasia
p2187
I0
sVseverl
p2188
I0
sVtaxi
p2189
I1
sVtouch
p2190
I3
sVspeed
p2191
I1
sVover-estim
p2192
I0
sVdeath
p2193
I10
sVeurop
p2194
I1
sVsenseless
p2195
I0
sVidentif
p2196
I0
sVtreatment
p2197
I0
sVirrespons
p2198
I0
sVstruck
p2199
I1
sVearli
p2200
I4
sVread
p2201
I6
sVspecimen
p2202
I0
sVladi
p2203
I1
sVattackad
p2204
I1
sVamt
p2205
I0
sVrear
p2206
I0
sVpostcard
p2207
I0
sVbenefit
p2208
I0
sS't'
p2209
I0
sVverbal
p2210
I0
sVdouble-cross
p2211
I0
sVuneat
p2212
I0
sVuneasi
p2213
I0
sVsadden
p2214
I0
sVsixth
p2215
I0
sVthrow
p2216
I1
sVcomparison
p2217
I0
sVcentral
p2218
I2
sVsri
p2219
I0
sVsuffernig
p2220
I0
sVdegre
p2221
I1
sVjourney
p2222
I3
sVassassin
p2223
I0
sVunmarri
p2224
I0
sVoutlook
p2225
I0
sVunfaith
p2226
I0
sVearring
p2227
I0
sVtrade-entr
p2228
I1
sVfelf
p2229
I0
sVnurs
p2230
I2
sVentrust
p2231
I0
sVstare
p2232
I0
sVarea
p2233
I6
sVlos
p2234
I1
sVstarv
p2235
I0
sVlow
p2236
I1
sVlot
p2237
I12
sVpremis
p2238
I1
sVrose-bush
p2239
I0
sVlymph
p2240
I0
sVhire
p2241
I1
sVhome)
p2242
I0
sVfurthermor
p2243
I0
sVbucket
p2244
I0
sV600
p2245
I1
sV1200
p2246
I0
sV60%
p2247
I0
sVtvvideo
p2248
I0
sVvalid
p2249
I0
sVcolt
p2250
I1
sVyou
p2251
I3
sVpoor
p2252
I1
sVpolar
p2253
I0
sVregistri
p2254
I0
sVhospital)
p2255
I0
sVdrift
p2256
I3
sVoverreact
p2257
I0
sVhospital:
p2258
I0
sVqueensland
p2259
I0
sVpeac
p2260
I0
sVpool
p2261
I1
sVreduc
p2262
I0
sVneighbour
p2263
I10
sVsmooch
p2264
I0
sVinevit
p2265
I0
sVrepay
p2266
I0
sVuntidi
p2267
I1
sVmessi
p2268
I0
sVmonth
p2269
I6
sVcrake
p2270
I1
sV(all
p2271
I1
sVcarpet
p2272
I0
sVcorps
p2273
I3
sVauckland
p2274
I2
sVgymnast
p2275
I0
sVembarras
p2276
I0
sVarticl
p2277
I0
sVfoster
p2278
I2
sVsolicit
p2279
I0
sVhealti
p2280
I0
sVhorror
p2281
I18
sVhorrot
p2282
I1
sVallus
p2283
I0
sVverg
p2284
I1
sVveri
p2285
I89
sVghost-lik
p2286
I1
sVdrumskin
p2287
I0
sVi'll
p2288
I1
sVanswer)
p2289
I0
sVhamper
p2290
I0
sVabscenc
p2291
I0
sVmilk
p2292
I0
sVmischievi
p2293
I1
sViran
p2294
I0
sS'ma'
p2295
I0
sVballet
p2296
I1
sVsororoti
p2297
I0
sVstrong
p2298
I5
sVhousekeeping)
p2299
I0
sVpeoplepress
p2300
I0
sVahead
p2301
I0
sVunmotiv
p2302
I0
sVwhine
p2303
I0
sVsoldier
p2304
I2
sVamount
p2305
I1
sVemotion)
p2306
I0
sVcreepi
p2307
I1
sVmedicin
p2308
I2
sVask
p2309
I11
sVfamili
p2310
I8
sVaggress
p2311
I0
sVinjuri
p2312
I0
sVmassag
p2313
I0
sVtaken
p2314
I5
sVlinden
p2315
I0
sVtumbl
p2316
I0
sVhurri
p2317
I0
sVclassmat
p2318
I4
sVdocumentay
p2319
I0
sVmeddlesom
p2320
I0
sVtake-off
p2321
I1
sVhistori
p2322
I0
sVnine
p2323
I1
sS'f3'
p2324
I0
sS'f4'
p2325
I0
sS'f5'
p2326
I0
sVboycott
p2327
I0
sVunrela
p2328
I0
sVbank)
p2329
I0
sVanoth
p2330
I19
sVwhhen
p2331
I1
sVreject
p2332
I0
sVasfixi
p2333
I1
sVrude
p2334
I1
sVwinnebago
p2335
I0
sVsneak
p2336
I1
sVfoxtail
p2337
I2
sS'fb'
p2338
I0
sVembrac
p2339
I0
sS'a'
p2340
I757
sVblush
p2341
I0
sVcondit
p2342
I2
sVovernight
p2343
I0
sVuntoward
p2344
I0
sVdread
p2345
I0
sVdream
p2346
I17
sVfeed
p2347
I1
sVhelp
p2348
I5
sVsoon
p2349
I2
sVheld
p2350
I3
sVobscen
p2351
I1
sVdelict
p2352
I0
sVrejoyc
p2353
I0
sV(cal
p2354
I0
sVdelici
p2355
I0
sVhaven't
p2356
I1
sVfool
p2357
I0
sVfood
p2358
I0
sVsentenc
p2359
I0
sS'ye'
p2360
I0
sVslimili
p2361
I0
sVvomit
p2362
I0
sVfoot
p2363
I2
sS'yr'
p2364
I0
sVnon-smoking)
p2365
I0
sVfairi
p2366
I0
sVbless
p2367
I0
sVmid-night
p2368
I1
sVapartheid
p2369
I0
sVfulli
p2370
I0
sVbook-report
p2371
I1
sVisn't
p2372
I0
sVifk
p2373
I0
sVcompetit
p2374
I0
sVevenb
p2375
I0
sVheavi
p2376
I4
sVbeyond
p2377
I0
sVevent
p2378
I4
sVvertigo
p2379
I1
sVsafeti
p2380
I2
sVwedlock
p2381
I0
sVmontros
p2382
I0
sVrobert
p2383
I0
sVpublish
p2384
I0
sVfountain
p2385
I0
sS'7'
p2386
I1
sVjolli
p2387
I0
sVdrink
p2388
I5
sVinert
p2389
I0
sVdirt
p2390
I1
sVpud
p2391
I0
sVpub
p2392
I0
sVhousem
p2393
I0
sVreason
p2394
I6
sVbase
p2395
I1
sVbrightest
p2396
I0
sVput
p2397
I3
sVprecari
p2398
I0
sVamerican
p2399
I1
sVundergo
p2400
I2
sVassign
p2401
I0
sVmisl
p2402
I0
sVelder
p2403
I0
sVuninterest
p2404
I0
sVskis;
p2405
I0
sVmist
p2406
I1
sVmiss
p2407
I6
sVholdiday
p2408
I0
sVstation
p2409
I4
sVdisagr
p2410
I0
sVbanana
p2411
I0
sVbowel
p2412
I1
sVboredom
p2413
I0
sVgrew
p2414
I1
sVuncanni
p2415
I1
sVgrey
p2416
I0
sVgroceri
p2417
I0
sVbridg
p2418
I2
sVtoward
p2419
I11
sVcomrad
p2420
I0
sVexperience:
p2421
I0
sVimagin
p2422
I7
sVcave
p2423
I1
sVlit
p2424
I0
sVlabour
p2425
I1
sVuseless
p2426
I0
sVpregiudic
p2427
I0
sVindecis
p2428
I0
sV(univers
p2429
I0
sVquota
p2430
I1
sVunthought
p2431
I0
sVeaten
p2432
I1
sVhereaft
p2433
I0
sV5-1
p2434
I0
sVclear
p2435
I3
sVsalari
p2436
I0
sVunwel
p2437
I1
sVclean
p2438
I1
sVusual
p2439
I2
sVnonchal
p2440
I0
sVhyper
p2441
I0
sVhomework;
p2442
I0
sVpretti
p2443
I1
sVparanoid
p2444
I0
sVscooter
p2445
I0
sVless
p2446
I1
sVqueu
p2447
I0
sVrotterdam
p2448
I1
sVinciner
p2449
I0
sV(boarding)
p2450
I0
sVmeat-factori
p2451
I0
sVzambia
p2452
I0
sVintensifi
p2453
I0
sVnativ
p2454
I1
sVantiqu
p2455
I2
sS'x'
p2456
I0
sVcramp
p2457
I0
sVbloopers:
p2458
I0
sVclose
p2459
I17
sVwhatsoev
p2460
I0
sVfrustat
p2461
I0
sVhorrif
p2462
I1
sVgrandmoth
p2463
I4
sVparticip
p2464
I0
sVyears)
p2465
I0
sVwon
p2466
I0
sVpiss
p2467
I0
sVdalla
p2468
I0
sVeffet
p2469
I0
sVisol
p2470
I0
sVpoorer
p2471
I0
sV16-year
p2472
I0
sVzipper
p2473
I0
sVboth
p2474
I4
sVabove:
p2475
I0
sVfiance
p2476
I1
sVwouldn't
p2477
I1
sVforgotten
p2478
I1
sVtickets)
p2479
I0
sV(secret
p2480
I0
sVbadminton
p2481
I0
sVlow-spirit
p2482
I0
sVcoincid
p2483
I0
sVforgiv
p2484
I0
sVsurnam
p2485
I0
sVstamp
p2486
I0
sVterritori
p2487
I0
sVempti
p2488
I3
sVthreaten
p2489
I15
sVnapl
p2490
I1
sVdame
p2491
I0
sVhere;
p2492
I1
sVsuccess)
p2493
I0
sVimag
p2494
I1
sVcitizen
p2495
I0
sVliver
p2496
I1
sVpact
p2497
I0
sVgrass-parakeet
p2498
I0
sVlook
p2499
I22
sVsocialist
p2500
I0
sVcanadian
p2501
I0
sVbikini
p2502
I1
sVsmart
p2503
I0
sVloos
p2504
I3
sVloop
p2505
I0
sVpack
p2506
I0
sVreadi
p2507
I0
sVpolythecnic)
p2508
I0
sVlawyer)
p2509
I0
sVuncertain)
p2510
I0
sV8:00
p2511
I1
sVgrant
p2512
I0
sVteam-mat
p2513
I0
sVbelong
p2514
I1
sVwnat
p2515
I0
sVdiscredit
p2516
I0
sV(authoritarian)
p2517
I0
sVgrand
p2518
I0
sVterrac
p2519
I1
sVconflict
p2520
I1
sVcastrat
p2521
I0
sVlie
p2522
I2
sVinflat
p2523
I0
sV000
p2524
I0
sVtemporari
p2525
I0
sVfatti
p2526
I0
sVolder
p2527
I0
sVpoona
p2528
I0
sVcalcutta
p2529
I0
sVcous
p2530
I0
sVbaptiz
p2531
I0
sVbaptis
p2532
I0
sVchosen)
p2533
I0
sS'$'
p2534
I0
sVunintent
p2535
I0
sVschoolwork
p2536
I0
sVpeptalk
p2537
I0
sVsubsequ
p2538
I1
sVcemeteri
p2539
I1
sV(of
p2540
I0
sVmarch
p2541
I1
sVunsult
p2542
I0
sVroommat
p2543
I2
sVtext-book
p2544
I0
sVoutright
p2545
I0
sVpillar
p2546
I0
sVresolv
p2547
I0
sVelaps
p2548
I1
sVeel
p2549
I2
sVexamns)
p2550
I0
sVparamilitari
p2551
I0
sV(befor
p2552
I1
sVsketch
p2553
I0
sVrelations)
p2554
I0
sVsome
p2555
I37
sVone-way
p2556
I1
sV28th
p2557
I1
sVmustang
p2558
I0
sVchocol
p2559
I0
sVslash
p2560
I0
sVfather;
p2561
I0
sVrun
p2562
I8
sVsquirrel
p2563
I1
sVheavyli
p2564
I0
sVreoccur
p2565
I1
sVrug
p2566
I1
sVrud
p2567
I0
sVfather)
p2568
I0
sVstep
p2569
I5
sVabroad
p2570
I1
sVfaith
p2571
I0
sVcrter
p2572
I0
sVshini
p2573
I0
sVsake
p2574
I0
sVidl
p2575
I0
sVblock
p2576
I3
sVunivers
p2577
I18
sV1283
p2578
I0
sVwithin
p2579
I2
sVwhale-hunt
p2580
I0
sVabsent-mind
p2581
I0
sVinstitut
p2582
I1
sVcalumni
p2583
I0
sV(accidentally)
p2584
I0
sVhimself
p2585
I0
sV(women
p2586
I0
sVfishi
p2587
I0
sVfrost
p2588
I1
sVtonga
p2589
I0
sVreef
p2590
I1
sVrussian
p2591
I1
sVpharmacolog
p2592
I0
sVreel
p2593
I1
sVdull
p2594
I0
sVinfo
p2595
I0
sVutc
p2596
I1
sVskull
p2597
I0
sVuth
p2598
I1
sVdust-bin
p2599
I0
sVsimilar
p2600
I2
sVrepres
p2601
I0
sVfrance)
p2602
I0
sVkwatcha
p2603
I0
sVnag
p2604
I0
sV2130
p2605
I0
sVnap
p2606
I0
sVdraw
p2607
I1
sVtongu
p2608
I1
sVdoes)
p2609
I0
sVresign
p2610
I0
sVwilliam
p2611
I0
sVdrag
p2612
I1
sVkarapiro
p2613
I0
sVaxcurs
p2614
I1
sVsupris
p2615
I0
sVblack-out
p2616
I1
sS'e'
p2617
I0
sVhorseplay
p2618
I0
sVouting
p2619
I0
sVunconscienci
p2620
I0
sVprime-minist
p2621
I0
sVroll-cal
p2622
I0
sVfear)
p2623
I0
sVbribe
p2624
I0
sS'gv'
p2625
I0
sVpretenti
p2626
I0
sVgo
p2627
I90
sVpsycho
p2628
I1
sVhoney-moon
p2629
I0
sVtogeht
p2630
I0
sVairplan
p2631
I0
sVvirtuous
p2632
I0
sVsausag
p2633
I0
sVnomine
p2634
I0
sVdefamatori
p2635
I0
sVwave
p2636
I2
sVdogit
p2637
I1
sS'g)'
p2638
I0
sVnausea
p2639
I0
sVsomeeon
p2640
I1
sVstairway
p2641
I0
sVjumb
p2642
I0
sVcarter
p2643
I0
sVpornographi
p2644
I0
sVjump
p2645
I9
sVbooth
p2646
I0
sVside-issu
p2647
I0
sVwallet
p2648
I2
sVslight
p2649
I2
sVreclus
p2650
I0
sVcell
p2651
I0
sVhissingen
p2652
I1
sVrotten
p2653
I0
sVexperiment
p2654
I0
sVbecom
p2655
I1
sVconvert
p2656
I0
sVconvers
p2657
I1
sVwalkman
p2658
I0
sVvacat
p2659
I0
sVweren't
p2660
I0
sVtrack-team
p2661
I0
sVnoisili
p2662
I0
sVchang
p2663
I3
sVchanc
p2664
I1
sVraflect
p2665
I0
sVdanger
p2666
I11
sVpitch
p2667
I1
sVwin
p2668
I0
sVmark-book
p2669
I0
sVwil
p2670
I0
sVwit
p2671
I1
sVnijmegen
p2672
I2
sVcrap
p2673
I0
sVcheeki
p2674
I0
sVquarel
p2675
I0
sVimplic
p2676
I0
sVcamera
p2677
I0
sVcrab
p2678
I0
sVstage
p2679
I0
sVmalawi
p2680
I2
sVfridg
p2681
I0
sVmean-act
p2682
I1
sVecon
p2683
I0
sV70th
p2684
I0
sVride
p2685
I5
sVmeet
p2686
I15
sVnext-door
p2687
I0
sVcontrol
p2688
I2
sVwharf
p2689
I0
sVhalloween
p2690
I0
sVsudi
p2691
I0
sVwonderful
p2692
I0
sVskirt
p2693
I0
sVdispleasur
p2694
I0
sVoverse
p2695
I0
sVround-about
p2696
I0
sVfeeli
p2697
I0
sVletterbox
p2698
I0
sVfare
p2699
I0
sVfarm
p2700
I0
sVfart
p2701
I0
sVred-had
p2702
I0
sVmasturb
p2703
I1
sVday-dream
p2704
I0
sViqam
p2705
I0
sVcatti
p2706
I0
sVhigh-heel
p2707
I0
sVrefre
p2708
I0
sVwon't
p2709
I0
sVblake
p2710
I0
sVouter
p2711
I0
sVschoolar
p2712
I0
sVyoungster
p2713
I0
sVhandl
p2714
I1
sVauto
p2715
I1
sVantihygien
p2716
I0
sVfront
p2717
I18
sVsomewher
p2718
I1
sVslide
p2719
I0
sVmasterb
p2720
I0
sVmmember
p2721
I0
sV(the
p2722
I0
sVchung
p2723
I1
sVchunk
p2724
I1
sVseesaw
p2725
I0
sV70%
p2726
I0
sVspecial
p2727
I1
sVintrud
p2728
I0
sVtime;
p2729
I1
sVinfluenc
p2730
I1
sVconfess
p2731
I0
sVdischarg
p2732
I0
sVwamkulu
p2733
I1
sVsuitabl
p2734
I0
sVfriends'fianct
p2735
I0
sVhardwar
p2736
I0
sVwich
p2737
I0
sVfilthi
p2738
I0
sVmanipul
p2739
I0
sVyounger)
p2740
I1
sVill)
p2741
I0
sVunwant
p2742
I0
sV(8)
p2743
I1
sVkeep
p2744
I0
sVkeen
p2745
I1
sVbootlick
p2746
I0
sVqualiti
p2747
I0
sVcardiac
p2748
I1
sVbitch
p2749
I0
sVice-cream
p2750
I0
sVactivity)
p2751
I0
sVattack
p2752
I13
sVfinal
p2753
I6
sV2-3
p2754
I0
sV2-4
p2755
I0
sVpunish
p2756
I1
sVherself
p2757
I1
sVneck
p2758
I0
sVphotograph
p2759
I0
sVbeg
p2760
I0
sVbed
p2761
I8
sVshill
p2762
I0
sVclaim
p2763
I0
sVbey
p2764
I0
sVbare
p2765
I1
sVcomite
p2766
I0
sVbet
p2767
I1
sVexhibit
p2768
I0
sVfunction
p2769
I0
sV19831984
p2770
I1
sVintention)
p2771
I0
sVtabl
p2772
I2
sVventil
p2773
I0
sVscrew
p2774
I0
sVenvironments)
p2775
I0
sVaquaint
p2776
I0
sVunawar
p2777
I0
sVtactic
p2778
I0
sVtruck
p2779
I7
sVsingl
p2780
I1
sVtwelveth
p2781
I0
sVdissappoint
p2782
I0
sVpakeha
p2783
I0
sVdeplor
p2784
I0
sVinter-depart
p2785
I0
sVdiscov
p2786
I5
sVpresid
p2787
I0
sVbasket
p2788
I0
sVaborigin
p2789
I0
sVstereo
p2790
I0
sVurg
p2791
I0
sVupset
p2792
I1
sVbun
p2793
I0
sVsing)
p2794
I0
sVindi
p2795
I0
sVaffair
p2796
I0
sVlovelik
p2797
I0
sVindoor
p2798
I0
sVanyway
p2799
I2
sVpasss
p2800
I0
sVshop-lift
p2801
I0
sVmolest
p2802
I1
sVtire
p2803
I0
sVinternalis
p2804
I0
sS'('
p2805
I1
sVwinner
p2806
I0
sVupstair
p2807
I1
sVfuel
p2808
I2
sVvice-chairman
p2809
I0
sVexpreienc
p2810
I0
sVitthem
p2811
I0
sVnewcast
p2812
I1
sVgratifi
p2813
I0
sVgraz
p2814
I2
sVenabl
p2815
I1
sVtobacco
p2816
I0
sVcountrysid
p2817
I1
sVconservatori
p2818
I0
sVgush
p2819
I0
sVwould-b
p2820
I0
sVshi
p2821
I0
sVgrab
p2822
I1
sVpreach
p2823
I0
sVpoulat
p2824
I0
sVmunicip
p2825
I1
sVfuner
p2826
I0
sVorphan
p2827
I0
sVimmor
p2828
I0
sVkorea
p2829
I0
sVyugoslavia
p2830
I0
sVdriveway
p2831
I0
sVinterced
p2832
I0
sVtend
p2833
I0
sVwritten
p2834
I1
sVtyre
p2835
I1
sVtens
p2836
I2
sVneither
p2837
I0
sV(though
p2838
I1
sVtent
p2839
I3
sVbleed
p2840
I0
sVcriticis
p2841
I0
sVkey
p2842
I0
sVswindl
p2843
I0
sVprecious
p2844
I0
sVstudyi
p2845
I0
sVcareer
p2846
I1
sVadmit
p2847
I3
sVadmir
p2848
I0
sVjersey
p2849
I0
sVtuesday
p2850
I2
sVtogether)
p2851
I0
sVsense)
p2852
I0
sVpoem
p2853
I0
sVslowli
p2854
I3
sVtread
p2855
I0
sVown)
p2856
I0
sVcent
p2857
I0
sVquiz
p2858
I1
sVtreat
p2859
I3
sVyournal
p2860
I0
sVluapula
p2861
I0
sVhamburg
p2862
I0
sVfurnitur
p2863
I0
sVdigger
p2864
I1
sVshameless
p2865
I0
sVcarefre
p2866
I0
sVparapsycholog
p2867
I0
sVharder
p2868
I1
sVdemonstrationand
p2869
I1
sVengag
p2870
I1
sVsinging-lesson
p2871
I0
sVresident
p2872
I1
sVtwo-month
p2873
I0
sVrevis
p2874
I0
sVscienc
p2875
I2
sVfahter
p2876
I0
sVwelcom
p2877
I0
sVparti
p2878
I7
sVbegan
p2879
I12
sVfolklor
p2880
I0
sVunderground
p2881
I1
sVeffect
p2882
I0
sVsooner
p2883
I0
sVfianct
p2884
I1
sVrift
p2885
I0
sS'i'
p2886
I1244
sVwell
p2887
I13
sVgrenad
p2888
I1
sVcuratao
p2889
I0
sVsibl
p2890
I0
sVdistanc
p2891
I5
sVwastepap
p2892
I0
sVdiscord
p2893
I0
sVsofia
p2894
I0
sVmistaken
p2895
I0
sVunattract
p2896
I0
sVmarocco
p2897
I2
sVdistant
p2898
I0
sS'40'
p2899
I0
sVsutur
p2900
I0
sVcrocodil
p2901
I1
sVkick
p2902
I1
sVbanquet
p2903
I0
sVfate
p2904
I0
sVslattern
p2905
I0
sVlilongw
p2906
I2
sVimec
p2907
I0
sVburden
p2908
I1
sVdeseas
p2909
I1
sVloss
p2910
I2
sVlost
p2911
I19
sVclown
p2912
I0
sVnecessari
p2913
I0
sVlose
p2914
I8
sVpage
p2915
I0
sVshed
p2916
I1
sVphenomena
p2917
I1
sVcontin
p2918
I1
sVhome
p2919
I85
sVlibrari
p2920
I1
sVcompetitor
p2921
I0
sVbefore)
p2922
I0
sVbroad
p2923
I0
sVestim
p2924
I1
sS'?'
p2925
I0
sVhinder
p2926
I0
sVfirst-day
p2927
I0
sVjournal
p2928
I0
sVexcap
p2929
I1
sVunsuccess
p2930
I0
sVnon-injuri
p2931
I0
sVrefuge
p2932
I0
sVquarter
p2933
I0
sVfreedom
p2934
I0
sVcleans
p2935
I0
sVjubile
p2936
I0
sVtortur
p2937
I0
sVnucleaar
p2938
I0
sVtimes)
p2939
I0
sVbombay
p2940
I0
sVdowngrad
p2941
I0
sVinner
p2942
I0
sVdriebergen
p2943
I0
sVcricket
p2944
I0
sVnetherland
p2945
I0
sVnorth
p2946
I2
sVunfriend
p2947
I0
sVagre
p2948
I1
sS'hs'
p2949
I0
sVmake-up
p2950
I0
sVtriangular
p2951
I0
sVadmonish
p2952
I0
sS'hi'
p2953
I0
sVgain
p2954
I0
sVwhistl
p2955
I1
sVoverflow
p2956
I0
sVhighest
p2957
I0
sVeat
p2958
I0
sS'he'
p2959
I59
sVrumba
p2960
I0
sVcruel
p2961
I0
sVlimit
p2962
I2
sVindefinit
p2963
I0
sVdisplay
p2964
I0
sVsubordin
p2965
I0
sVreciproc
p2966
I0
sVfriend)
p2967
I0
sVbalconi
p2968
I2
sVtwist
p2969
I0
sVfriend;
p2970
I0
sVdiego
p2971
I0
sVcontest
p2972
I0
sVfutur
p2973
I3
sVrememb
p2974
I8
sVchemist
p2975
I1
sVcassmat
p2976
I0
sVstar
p2977
I0
sVstay
p2978
I18
sVbreadcrumb
p2979
I0
sVfoil
p2980
I0
sVstab
p2981
I1
sV4-letter
p2982
I0
sVappoint
p2983
I3
sVspectacl
p2984
I0
sVmassacr
p2985
I0
sVdecemb
p2986
I0
sVprotest
p2987
I0
sVasian
p2988
I0
sVcaptain
p2989
I0
sV(which
p2990
I1
sVwhose
p2991
I2
sVaccus
p2992
I1
sVaccur
p2993
I0
sVup)
p2994
I0
sVsorri
p2995
I0
sVvasa
p2996
I1
sVvoic
p2997
I0
sVgovern
p2998
I0
sVaffect
p2999
I1
sVflatmat
p3000
I0
sV(snake)
p3001
I1
sVtriffl
p3002
I0
sVme)
p3003
I1
sVdogmat
p3004
I1
sVdiseas
p3005
I0
sVill
p3006
I19
sVkidnap
p3007
I0
sVme;
p3008
I0
sVme:
p3009
I0
sVeven
p3010
I25
sVslipperiness)
p3011
I1
sV(older
p3012
I0
sVasid
p3013
I1
sVorchestra
p3014
I0
sVwhile
p3015
I38
sVasia
p3016
I0
sVspokesman
p3017
I0
sVnev
p3018
I1
sVnew
p3019
I6
sVnet
p3020
I0
sVever
p3021
I1
sVaidshomosexu
p3022
I0
sVmed
p3023
I0
sV1130
p3024
I0
sVabov
p3025
I3
sVmen
p3026
I5
sVdrew
p3027
I0
sVmet
p3028
I10
sV102
p3029
I0
sV100
p3030
I1
sVaren't
p3031
I0
sVinterpret
p3032
I0
sV(asthma)
p3033
I0
sVinterupt
p3034
I0
sVsloven
p3035
I0
sVharass
p3036
I0
sVeve:
p3037
I0
sVpermit
p3038
I0
sVzombi
p3039
I1
sVcounti
p3040
I0
sVvolunt
p3041
I0
sVreagan
p3042
I0
sVtertiari
p3043
I0
sVavenu
p3044
I1
sVmoral
p3045
I1
sVhandlebar
p3046
I0
sVnarayan
p3047
I0
sVoverhear
p3048
I0
sVengland)
p3049
I0
sVmovie)
p3050
I1
sVcall
p3051
I14
sVcalm
p3052
I0
sVarmi
p3053
I3
sVtype
p3054
I1
sVtell
p3055
I11
sVwarn
p3056
I1
sVberlin
p3057
I0
sVwarm
p3058
I0
sVgrandfath
p3059
I2
sVadult
p3060
I0
sVward
p3061
I2
sVstinki
p3062
I0
sVroom
p3063
I21
sVroof
p3064
I3
sVcal)
p3065
I0
sVakin
p3066
I0
sVgive
p3067
I9
sVdefec
p3068
I0
sVpolic
p3069
I9
sVrib
p3070
I0
sVsoror
p3071
I0
sVfaulti
p3072
I0
sVclassmate)
p3073
I0
sVanswer
p3074
I1
sVnegoti
p3075
I0
sVconfid
p3076
I3
sVabdomen
p3077
I0
sV16-year-old
p3078
I0
sVattempt
p3079
I2
sVthird
p3080
I3
sVfault)
p3081
I0
sVboyfrien
p3082
I0
sVmaintain
p3083
I0
sVashamed;
p3084
I0
sVforesaw
p3085
I0
sVdeck
p3086
I0
sVtoadi
p3087
I0
sVmurray
p3088
I0
sVconcert-tour
p3089
I0
sVprivileg
p3090
I0
sVthen)
p3091
I0
sVcrew
p3092
I0
sVbetter
p3093
I0
sVpersist
p3094
I0
sVclubbedspik
p3095
I0
sVinconsider
p3096
I0
sV30s)
p3097
I0
sVanim
p3098
I1
sVtherapi
p3099
I0
sVunthink
p3100
I0
sVtthe
p3101
I0
sVcaterpillar
p3102
I3
sVpromis
p3103
I1
sVdostoerski
p3104
I0
sVstudennt
p3105
I0
sVmeat
p3106
I0
sVluca
p3107
I1
sVroast
p3108
I0
sVwent
p3109
I53
sVoblig
p3110
I1
sVside
p3111
I7
sVmean
p3112
I1
sVhitchhik
p3113
I1
sVhallway
p3114
I0
sVenorm
p3115
I0
sVtaught
p3116
I0
sVwiith
p3117
I0
sVforgot
p3118
I3
sVdawn
p3119
I1
sVcollector
p3120
I0
sVincomprehens
p3121
I1
sVneuropsychology)
p3122
I0
sVcontent
p3123
I0
sVis)
p3124
I0
sVstart)
p3125
I0
sVlove-lett
p3126
I0
sVsituat
p3127
I3
sVwelfar
p3128
I1
sVsunshin
p3129
I0
sVlout
p3130
I1
sVpenuri
p3131
I0
sVma-i
p3132
I1
sVstartl
p3133
I1
sVloud
p3134
I0
sVuser
p3135
I0
sVgrade
p3136
I3
sVhoot
p3137
I0
sVbuttock
p3138
I0
sVhook
p3139
I0
sVunlik
p3140
I0
sVnaughti
p3141
I1
sVditch
p3142
I2
sVacquaint
p3143
I3
sV11-month
p3144
I0
sVsometim
p3145
I4
sVardmor
p3146
I0
sVdwell
p3147
I0
sVstolen)
p3148
I0
sVfloor)
p3149
I1
sVgym
p3150
I0
sVgalicia
p3151
I0
sVsomewhat
p3152
I0
sVpeculiar
p3153
I0
sV4th5th
p3154
I0
sVsilli
p3155
I0
sVallowed)
p3156
I0
sVkankaanpss
p3157
I0
sVmatter
p3158
I1
sVanxieti
p3159
I3
sVcruelli
p3160
I0
sVgirl)
p3161
I0
sVgutar
p3162
I0
sVmind
p3163
I2
sVmine
p3164
I15
sVbouncer
p3165
I1
sVseen
p3166
I3
sVseem
p3167
I6
sVseek
p3168
I0
sVchess
p3169
I0
sVcrippl
p3170
I0
sVmarit
p3171
I0
sVregular
p3172
I1
sV(5th
p3173
I0
sVprematur
p3174
I1
sVmaria
p3175
I0
sVtradit
p3176
I0
sV(ship
p3177
I0
sVentrail
p3178
I0
sValarm
p3179
I2
sS'm'
p3180
I2
sVdog
p3181
I27
sVdoe
p3182
I0
sV20-35
p3183
I1
sVvisitor
p3184
I0
sVantth
p3185
I1
sVchore
p3186
I0
sVnevada
p3187
I1
sVdespit
p3188
I1
sVnortheast
p3189
I0
sVacquir
p3190
I0
sVdespis
p3191
I0
sVexplain
p3192
I0
sVsugar
p3193
I0
sVred-cheek
p3194
I0
sVfolder
p3195
I0
sV(english
p3196
I0
sV(present
p3197
I0
sVstop
p3198
I14
sVincestu
p3199
I0
sVcoast
p3200
I1
sVearn
p3201
I0
sVbar
p3202
I2
sVsacrific
p3203
I0
sVdisco
p3204
I1
sVbag
p3205
I0
sVbad
p3206
I14
sVcalcul
p3207
I0
sVban
p3208
I0
sVtchaikovsdi
p3209
I0
sVvampir
p3210
I1
sVunworthi
p3211
I0
sVsubject
p3212
I6
sVsaid
p3213
I4
sVscrap
p3214
I0
sVsail
p3215
I1
sVmchesi
p3216
I1
sVattribut
p3217
I0
sVcheck
p3218
I2
sVjan-erik
p3219
I0
sVtolman
p3220
I1
sV380
p3221
I0
sVlazi
p3222
I0
sVcousin
p3223
I2
sVweari
p3224
I1
sVlung-canc
p3225
I1
sV(about
p3226
I2
sVadolesc
p3227
I0
sVagainst
p3228
I6
sVuni
p3229
I3
sVuncertainti
p3230
I1
sVepilept
p3231
I1
sVcoconut
p3232
I0
sVheight
p3233
I1
sVboys)
p3234
I0
sVbrigad
p3235
I0
sVmurder)
p3236
I0
sVingrati
p3237
I0
sVthree
p3238
I9
sVerect
p3239
I0
sVtrigger
p3240
I1
sVinterest
p3241
I2
sVbasic
p3242
I0
sVidol
p3243
I1
sVthrew
p3244
I2
sV16)
p3245
I0
sVmce
p3246
I1
sVdismiss
p3247
I0
sVdeepen
p3248
I0
sVtank
p3249
I0
sVacquaintac
p3250
I0
sVimpractic
p3251
I0
sVservic
p3252
I0
sVtime-t
p3253
I0
sVnear
p3254
I25
sVoccas
p3255
I0
sVanymor
p3256
I1
sVseven
p3257
I2
sVmexico
p3258
I0
sVcano
p3259
I2
sS'is'
p3260
I24
sS'it'
p3261
I136
sS'ii'
p3262
I2
sVshame
p3263
I0
sS'in'
p3264
I430
sVsnow-cov
p3265
I1
sS'ie'
p3266
I1
sVsever
p3267
I13
sS'if'
p3268
I16
sVgrown
p3269
I0
sVreceiv
p3270
I6
sVmake
p3271
I16
sV(form
p3272
I1
sVguard-man
p3273
I1
sVbacaus
p3274
I0
sVcellulos
p3275
I0
sVdelight
p3276
I0
sVgarlic
p3277
I0
sVjealous
p3278
I2
sVovert
p3279
I0
sVkid
p3280
I2
sVbutter
p3281
I0
sVqualif
p3282
I0
sVbell)
p3283
I1
sV(for)
p3284
I0
sVcongreg
p3285
I0
sVgame
p3286
I2
sVinherit
p3287
I0
sVrome
p3288
I0
sVprogramm
p3289
I0
sVleft
p3290
I22
sVjust
p3291
I16
sVnowaday
p3292
I0
sVunfair
p3293
I0
sVtriller
p3294
I1
sVyear-old
p3295
I0
sVpsych
p3296
I1
sVhuman
p3297
I2
sVyes
p3298
I0
sVyet
p3299
I3
sVlanguag
p3300
I3
sVschhol
p3301
I0
sVsensat
p3302
I0
sVsave
p3303
I0
sVopt
p3304
I0
sVapplic
p3305
I1
sVago)
p3306
I2
sVcoron
p3307
I0
sVvaniti
p3308
I0
sVelabor
p3309
I1
sVdreamt
p3310
I5
sVathlet
p3311
I0
sVshoulder
p3312
I1
sVobstin
p3313
I0
sVthank-you
p3314
I0
sVnegat
p3315
I1
sVmantlepiec
p3316
I0
sVoverslept
p3317
I0
sVoutlandish
p3318
I0
sVdean
p3319
I0
sVdeal
p3320
I0
sVinterv
p3321
I1
sVdeaf
p3322
I0
sVsomehow
p3323
I0
sVdead
p3324
I15
sV(parents)
p3325
I1
sVintern
p3326
I0
sVdear
p3327
I0
sVinterf
p3328
I0
sVnormal
p3329
I0
sVovercook
p3330
I1
sVcreatur
p3331
I0
sVconced
p3332
I0
sVinsecur
p3333
I1
sVburn
p3334
I0
sVpromot
p3335
I0
sVdilig
p3336
I0
sVanaunt
p3337
I1
sVinnuendo
p3338
I0
sVscenari
p3339
I0
sVdancing-tavern
p3340
I0
sVafternoon
p3341
I2
sVcommit
p3342
I1
sVtelephon
p3343
I1
sVprakash
p3344
I0
sVdown
p3345
I29
sVamsterdam
p3346
I0
sVforgav
p3347
I0
sVk10
p3348
I0
sVmidnight)
p3349
I1
sVimit
p3350
I0
sVeditor
p3351
I0
sVjealousi
p3352
I1
sVform
p3353
I8
sVforc
p3354
I5
sVford
p3355
I0
sVdiificult
p3356
I0
sV31st
p3357
I0
sVtemper
p3358
I1
sV(academic)
p3359
I0
sVfeatur
p3360
I0
sVunzasu
p3361
I0
sVnorthsid
p3362
I1
sVmotorbik
p3363
I1
sVdiagnosi
p3364
I1
sVsale
p3365
I0
sVgland
p3366
I0
sVshit
p3367
I0
sVinterst
p3368
I0
sVexcel
p3369
I0
sVcommunic
p3370
I0
sVnonsen
p3371
I0
sVk30
p3372
I0
sVaunti
p3373
I0
sVunlimit
p3374
I1
sVwidow)
p3375
I0
sV8pm)
p3376
I1
sVhandicap
p3377
I0
sVfelt
p3378
I65
sVdiet
p3379
I0
sVfell
p3380
I11
sVaward
p3381
I0
sVsybajaj
p3382
I0
sVweekend
p3383
I2
sVfemal
p3384
I1
sVbictorian
p3385
I0
sVpotato
p3386
I0
sVignor
p3387
I2
sVteeth
p3388
I0
sVdaili
p3389
I0
sVskip
p3390
I0
sVeldest
p3391
I1
sVinvent
p3392
I0
sVmild
p3393
I0
sVmile
p3394
I1
sVskin
p3395
I1
sVmilo
p3396
I0
sVskid
p3397
I4
sV21st
p3398
I0
sVdepend
p3399
I0
sVjumbo-jet
p3400
I1
sVfather
p3401
I36
sVregatta
p3402
I0
sVsociolog
p3403
I0
sVsportwoman
p3404
I0
sVshoot
p3405
I5
sVstring
p3406
I0
sV9-5
p3407
I1
sV(tv)
p3408
I0
sVdim
p3409
I1
sVdin
p3410
I0
sVdid
p3411
I44
sVdie
p3412
I21
sVdemocrat
p3413
I0
sVitem
p3414
I1
sVround
p3415
I0
sVshoe
p3416
I0
sVworm
p3417
I0
sVasham
p3418
I0
sVrum
p3419
I0
sVfavour
p3420
I0
sVsuspect
p3421
I0
sVdrunkard
p3422
I2
sVderiv
p3423
I1
sVguardian
p3424
I0
sVclerk
p3425
I0
sVfrench
p3426
I0
sVdetest
p3427
I0
sVdeceiv
p3428
I0
sVinvoluntarili
p3429
I0
sVwait
p3430
I14
sVbox
p3431
I2
sVboy
p3432
I14
sVinvit
p3433
I0
sVshift
p3434
I0
sV(close
p3435
I0
sVextrem
p3436
I0
sVextren
p3437
I0
sVshook
p3438
I1
sVelect
p3439
I0
sVjacko-lantern
p3440
I0
sVexposeexplor
p3441
I0
sVmsce
p3442
I0
sVparalys
p3443
I1
sVself-in
p3444
I0
sVbophal
p3445
I0
sVparalyz
p3446
I1
sVsaddn
p3447
I0
sVvisit
p3448
I4
sVeverybodi
p3449
I1
sVaspirin
p3450
I0
sVcurriculum
p3451
I0
sVdowntown
p3452
I0
sVrigid
p3453
I1
sVexamin
p3454
I25
sVquickly)
p3455
I1
sVcollective)
p3456
I0
sVeffort
p3457
I0
sVdemolish
p3458
I0
sVflu
p3459
I0
sVsoul
p3460
I0
sVfli
p3461
I2
sVsoup
p3462
I0
sVsour
p3463
I0
sV9th
p3464
I0
sVhiroshima
p3465
I0
sVrock-climb
p3466
I1
sVfavourit
p3467
I0
sVpredict
p3468
I0
sVdrawer
p3469
I0
sVcrazi
p3470
I0
sVcouncil
p3471
I0
sVagenc
p3472
I0
sVpredica
p3473
I0
sVmongu
p3474
I0
sVpurs
p3475
I1
sVclever
p3476
I1
sVget
p3477
I37
sVpenthous
p3478
I0
sVtill
p3479
I4
sVsunday
p3480
I1
sVpure
p3481
I0
sV(lying)
p3482
I0
sVtile
p3483
I0
sVmap
p3484
I0
sVmar
p3485
I0
sVmat
p3486
I0
sV140
p3487
I1
sVmay
p3488
I8
sVmad
p3489
I2
sVclassroom)
p3490
I0
sVgrow
p3491
I0
sVman
p3492
I33
sVconcid
p3493
I0
sVrepuls
p3494
I1
sV6th
p3495
I0
sVtale
p3496
I0
sVswitch
p3497
I1
sVjail
p3498
I0
sVafrican
p3499
I1
sVnon-riot
p3500
I0
sVpurifi
p3501
I0
sVtalk
p3502
I12
sV(small
p3503
I0
sVgradual
p3504
I0
sVgenerally)
p3505
I0
sVgraduat
p3506
I0
sVlyric
p3507
I0
sVshake
p3508
I3
sVequip
p3509
I1
sVentitl
p3510
I0
sVreinforc
p3511
I0
sVgroup
p3512
I8
sVthank
p3513
I0
sVpolici
p3514
I0
sVmonths)
p3515
I1
sVmaiz
p3516
I0
sVmaim
p3517
I0
sVmail
p3518
I0
sVmain
p3519
I1
sVmorbid
p3520
I0
sVfinanci
p3521
I0
sVkiller
p3522
I1
sViniti
p3523
I1
sVlunch
p3524
I1
sVpossess
p3525
I1
sVacquaintanc
p3526
I0
sVruneberg
p3527
I0
sVcareless
p3528
I1
sVrock
p3529
I5
sVmisbehav
p3530
I1
sVmotherland
p3531
I0
sVeyelid
p3532
I1
sVbitumen
p3533
I1
sVbookshop
p3534
I0
sVcontinu
p3535
I1
sVcontini
p3536
I1
sVunlock
p3537
I1
sVgirl
p3538
I18
sVbabysitt
p3539
I0
sVcanada
p3540
I0
sVbeacaus
p3541
I0
sVtwelv
p3542
I0
sVdutch
p3543
I0
sVcorrect
p3544
I1
sVromanc
p3545
I0
sVearlier
p3546
I1
sVcalifornia
p3547
I0
sV(g-10)
p3548
I0
sVromant
p3549
I1
sVcough
p3550
I0
sVzomba
p3551
I0
sVunderwear
p3552
I0
sVwurm
p3553
I0
sVthing
p3554
I8
sVministri
p3555
I0
sVprincipl
p3556
I0
sVthink
p3557
I14
sVfrequent
p3558
I1
sVfirst
p3559
I48
sVnitsch
p3560
I0
sVcarri
p3561
I3
sVlone
p3562
I6
sVcouter-argu
p3563
I0
sVcrib
p3564
I0
sVfast
p3565
I7
sVoppos
p3566
I0
sVthoughtless
p3567
I0
sVslept
p3568
I5
sVfierc
p3569
I2
sVambul
p3570
I0
sS'1a'
p3571
I0
sVaverag
p3572
I0
sVescort
p3573
I2
sVproposit
p3574
I0
sVmelbourn
p3575
I0
sVbroadcast
p3576
I1
sVbutt
p3577
I0
sVdeafen
p3578
I0
sS'11'
p3579
I1
sS'10'
p3580
I7
sS'13'
p3581
I0
sS'12'
p3582
I4
sS'15'
p3583
I0
sS'14'
p3584
I1
sS'17'
p3585
I1
sS'16'
p3586
I1
sS'19'
p3587
I0
sS'18'
p3588
I0
sVwere
p3589
I85
sVsurrog
p3590
I0
sVtractor
p3591
I0
sV20s
p3592
I0
sVlick
p3593
I0
sVpastri
p3594
I0
sVseal
p3595
I0
sVlice
p3596
I0
sVsulk
p3597
I0
sVunsteadi
p3598
I1
sVnazi
p3599
I0
sVsquaw
p3600
I1
sVsquar
p3601
I0
sVadvic
p3602
I0
sV(school
p3603
I0
sVcantor
p3604
I1
sVadvis
p3605
I0
sVcalam
p3606
I0
sVchannel
p3607
I0
sVincoher
p3608
I0
sV200
p3609
I1
sVpain
p3610
I1
sVnorman
p3611
I0
sVtrace
p3612
I1
sVroster
p3613
I0
sVtrack
p3614
I0
sVpaid
p3615
I0
sValoud
p3616
I0
sVassault
p3617
I7
sVzesco
p3618
I0
sVpair
p3619
I0
sV(food)
p3620
I0
sVgound
p3621
I0
sVshop
p3622
I5
sVshot
p3623
I1
sVshow
p3624
I1
sVemployer)
p3625
I0
sVcorner
p3626
I0
sVexitus
p3627
I0
sVcornet
p3628
I0
sVenthusiast
p3629
I0
sVfenc
p3630
I3
sVbehind
p3631
I15
sVblack
p3632
I2
sVfanta
p3633
I0
sVgear-lev
p3634
I0
sVger
p3635
I0
sVmonopolis
p3636
I0
sVsecondari
p3637
I5
sVmisbehaviour
p3638
I0
sVmalaysian
p3639
I0
sVyield
p3640
I0
sVstupid
p3641
I2
sVseat
p3642
I1
sVtrans-tasman
p3643
I0
sVcauliflow
p3644
I0
sV(like
p3645
I0
sVwonder
p3646
I3
sVinfinit
p3647
I0
sVenough
p3648
I11
sV(secondary)
p3649
I0
sVacross
p3650
I2
sVaugust
p3651
I1
sVparent
p3652
I18
sS'jr'
p3653
I0
sVguilty-consci
p3654
I0
sVtub
p3655
I0
sVconservatoir
p3656
I0
sVaudienc
p3657
I2
sVrugbi
p3658
I0
sVimprov
p3659
I0
sVimprop
p3660
I1
sVamong
p3661
I0
sVacceler
p3662
I1
sVcancer
p3663
I2
sVcustodi
p3664
I0
sVoneveri
p3665
I0
sVroulett
p3666
I1
sVcancel
p3667
I0
sVmard
p3668
I0
sVultim
p3669
I0
sVbrothersist
p3670
I0
sVsuicid
p3671
I1
sVmark
p3672
I5
sVperosn
p3673
I0
sV715%
p3674
I0
sVgraveyard
p3675
I1
sVhypocrisi
p3676
I0
sVwake
p3677
I1
sVlectur
p3678
I6
sVthose
p3679
I1
sVsound
p3680
I8
sVrucher
p3681
I0
sVdenigr
p3682
I0
sVpreson
p3683
I0
sVortograph
p3684
I0
sVmargin
p3685
I0
sVadvantag
p3686
I0
sVsudden
p3687
I27
sVmrw)
p3688
I0
sVoutrag
p3689
I0
sVabhorr
p3690
I0
sVeveryday
p3691
I1
sV(who
p3692
I0
sVharsh
p3693
I0
sVdoctor
p3694
I6
sVpay
p3695
I3
sVwoodland
p3696
I0
sVtour
p3697
I1
sVsame
p3698
I4
sV(anoth
p3699
I0
sVspeech
p3700
I1
sVpal
p3701
I1
sVbago
p3702
I0
sVpan
p3703
I0
sVexhaust
p3704
I0
sVoil
p3705
I0
sVassist
p3706
I0
sVcompanion
p3707
I0
sVcapabl
p3708
I0
sVpostpon
p3709
I0
sVforgot)
p3710
I0
sVone-man
p3711
I0
sVdrain
p3712
I0
sVpg310
p3713
I0
sVwellington
p3714
I1
sVworkplac
p3715
I0
sVoutdoor
p3716
I1
sVexecut
p3717
I0
sVmoney
p3718
I9
sVaspect
p3719
I0
sV5-7
p3720
I1
sVasthma
p3721
I1
sVski-jump
p3722
I2
sVpile
p3723
I1
sS'4'
p3724
I5
sVpill
p3725
I0
sVgrip
p3726
I1
sVwife)
p3727
I0
sVgloom
p3728
I0
sVmow
p3729
I1
sVtemperatur
p3730
I0
sVspank
p3731
I0
sV(he
p3732
I1
sVmob
p3733
I0
sVgrin
p3734
I0
sVrobberi
p3735
I1
sVvoluntarili
p3736
I0
sVnose
p3737
I1
sVfulfil
p3738
I1
sVdoll
p3739
I0
sVadequ
p3740
I0
sVtatoo
p3741
I0
sVgross
p3742
I1
sVconfirm
p3743
I1
sVkmh
p3744
I1
sVlunat
p3745
I0
sVkms
p3746
I1
sVknife
p3747
I4
sVraincoat
p3748
I0
sVrefere
p3749
I0
sVbroken
p3750
I8
sVopium
p3751
I0
sVroar
p3752
I1
sVisland
p3753
I3
sVnephews)
p3754
I0
sVlector
p3755
I0
sVroad
p3756
I28
sVmari
p3757
I0
sVmorning)
p3758
I0
sVcompliant
p3759
I0
sVstriker
p3760
I0
sVwalkway
p3761
I0
sVpre-enrol
p3762
I1
sVpossibl
p3763
I3
sVwasn't
p3764
I2
sVmonday)
p3765
I1
sV(recent
p3766
I1
sVpowerless
p3767
I0
sVaffection
p3768
I0
sVstudent;
p3769
I0
sVdidcov
p3770
I0
sVdeer
p3771
I2
sVdeep
p3772
I3
sVfellow
p3773
I4
sVundergon
p3774
I0
sVshe'd
p3775
I0
sVfile
p3776
I0
sVgenerat
p3777
I0
sVgirlfriend
p3778
I5
sVdeed
p3779
I0
sVproport
p3780
I0
sVfilm
p3781
I16
sVfill
p3782
I1
sVtedious
p3783
I0
sVagain
p3784
I6
sV1bs
p3785
I0
sVpersonnel
p3786
I0
sVfield
p3787
I3
sVarchitectur
p3788
I0
sVsubmarin
p3789
I0
sVescal
p3790
I0
sVunload
p3791
I0
sVdescript
p3792
I0
sVnon-sens
p3793
I1
sValright
p3794
I0
sVescap
p3795
I4
sVoral
p3796
I3
sVmotel
p3797
I0
sVtalki
p3798
I0
sVforget
p3799
I1
sVvile
p3800
I0
sVforbidden
p3801
I0
sVdollar
p3802
I0
sVmeddl
p3803
I0
sVsemest
p3804
I1
sVchildren
p3805
I1
sVself-disciplin
p3806
I0
sVaticl
p3807
I0
sVfellowship
p3808
I0
sVresum
p3809
I0
sVparcel
p3810
I0
sV(where
p3811
I0
sVfals
p3812
I0
sVutil
p3813
I0
sVscout
p3814
I0
sVfall
p3815
I10
sVfriendspartn
p3816
I0
sVdictatorship
p3817
I0
sV20th
p3818
I1
sVdeputi
p3819
I0
sVneighborhood
p3820
I1
sVandor
p3821
I0
sVzero
p3822
I0
sVlawyer
p3823
I0
sVfurther
p3824
I1
sVexcit
p3825
I1
sVstood
p3826
I2
sVabl
p3827
I8
sVdispleas
p3828
I0
sVpublic
p3829
I2
sVmovement
p3830
I3
sVmalaria
p3831
I1
sVticket-collector
p3832
I0
sVranger
p3833
I0
sVvalu
p3834
I1
sVsearch
p3835
I1
sVmiseri
p3836
I0
sVreberbahn
p3837
I0
sVairport
p3838
I1
sVnarrow
p3839
I3
sVfatten
p3840
I0
sVdeclin
p3841
I0
sVtransit
p3842
I0
sVafrica
p3843
I0
sVsadist
p3844
I0
sVreadili
p3845
I0
sVinappropri
p3846
I0
sVsanction
p3847
I0
sVestablish
p3848
I0
sVeye
p3849
I7
sVdistinct
p3850
I1
sVregist
p3851
I0
sVtwo
p3852
I26
sVsplash
p3853
I1
sVraft
p3854
I1
sV(male)
p3855
I0
sVbulgarian
p3856
I0
sVdiamond
p3857
I0
sVdesir
p3858
I0
sVred-tap
p3859
I0
sVparticular
p3860
I1
sVtown
p3861
I4
sVdictat
p3862
I1
sVnone
p3863
I1
sVhour
p3864
I20
sVhous
p3865
I55
sV(20
p3866
I0
sV(22
p3867
I1
sVremain
p3868
I2
sV(2)
p3869
I0
sVden
p3870
I0
sVabandon
p3871
I1
sVexplod
p3872
I1
sVstubborn
p3873
I1
sVshark
p3874
I1
sVhours:
p3875
I0
sVshare
p3876
I1
sVhours)
p3877
I1
sVcompart
p3878
I1
sVattain
p3879
I0
sVexplor
p3880
I1
sVsharp
p3881
I0
sS'!'
p3882
I3
sVawkward
p3883
I0
sVsecur
p3884
I3
sVcomfort
p3885
I0
sVself-control
p3886
I0
sVoiut
p3887
I0
sVstir
p3888
I0
sVfaculti
p3889
I0
sVblood
p3890
I4
sVpolynesian
p3891
I0
sVassoci
p3892
I0
sV(as
p3893
I0
sVill-consid
p3894
I0
sVcoat
p3895
I0
sV(4-0)
p3896
I0
sVblunder
p3897
I0
sVmislead
p3898
I0
sVsect
p3899
I0
sVcomsomol(??)
p3900
I0
sVimprtant
p3901
I0
sVgrief;
p3902
I0
sVmale)
p3903
I0
sVthrough
p3904
I27
sVsuffer
p3905
I4
sS'24'
p3906
I0
sS'20'
p3907
I4
sS'21'
p3908
I0
sS'22'
p3909
I0
sVstep-mother)
p3910
I0
sVbosom
p3911
I0
sVlate
p3912
I32
sVpend
p3913
I0
sVsongbook
p3914
I0
sS'2)'
p3915
I0
sVpeni
p3916
I1
sVgood
p3917
I5
sVsomeonn
p3918
I1
sVpollut
p3919
I0
sVgook
p3920
I0
sVcompound
p3921
I1
sVnecess
p3922
I0
sVcomplain
p3923
I0
sVpregnant
p3924
I2
sVpregnanc
p3925
I2
sVeasili
p3926
I1
sVtoken
p3927
I0
sVhabitu
p3928
I0
sVreminisc
p3929
I0
sVharm
p3930
I0
sVmental
p3931
I0
sVunequ
p3932
I0
sVfish
p3933
I3
sVhard
p3934
I4
sVidea
p3935
I2
sVfractur
p3936
I1
sVconnect
p3937
I1
sVenergi
p3938
I0
sVsolist
p3939
I0
sVorient
p3940
I1
sVadmist
p3941
I0
sVflower
p3942
I0
sVadmiss
p3943
I3
sVchildish
p3944
I0
sVprinc
p3945
I0
sVschure
p3946
I0
sV(religi
p3947
I0
sVdifficulti
p3948
I1
sVsuspici
p3949
I1
sVcockroach
p3950
I0
sVpleasant
p3951
I0
sVmmi
p3952
I0
sVbulli
p3953
I0
sVlonglast
p3954
I0
sVomit
p3955
I0
sVintermingl
p3956
I0
sVperman
p3957
I0
sV(orally)
p3958
I0
sVlover)
p3959
I0
sVintimid
p3960
I0
sVdont
p3961
I0
sVperturb
p3962
I0
sVexchang
p3963
I0
sVfoodstor
p3964
I0
sVgirl-friend
p3965
I1
sVcampground
p3966
I1
sVstabl
p3967
I1
sVobligatori
p3968
I0
sV5th
p3969
I0
sVleast
p3970
I1
sVpaint
p3971
I1
sV180
p3972
I1
sVstatement
p3973
I0
sVtwenti
p3974
I0
sVjetti
p3975
I1
sVtv-program
p3976
I1
sVpark
p3977
I7
sVpari
p3978
I1
sVglycerin
p3979
I0
sVdentist
p3980
I4
sVappropri
p3981
I0
sVrogu
p3982
I0
sS'b'
p3983
I0
sVgotten
p3984
I1
sVyouth
p3985
I2
sVsavageri
p3986
I0
sVbeij
p3987
I0
sVfull-scal
p3988
I0
sVreunion
p3989
I0
sV(china
p3990
I0
sVmountain
p3991
I10
sV(boy)
p3992
I0
sVbuilt
p3993
I0
sVtroublesom
p3994
I0
sVbuild
p3995
I11
sVflute
p3996
I0
sVmost
p3997
I5
sVpoke
p3998
I1
sVcharm
p3999
I0
sVage)
p4000
I0
sVcharg
p4001
I0
sS'kg'
p4002
I0
sS'km'
p4003
I0
sVpseudo-girlfriend
p4004
I0
sVslimi
p4005
I0
sVchoo-choo
p4006
I0
sVnodul
p4007
I1
sVfine
p4008
I0
sVfind
p4009
I17
sVchelston
p4010
I0
sVambit
p4011
I0
sVnervous
p4012
I2
sVruin
p4013
I0
sS'8'
p4014
I3
sVheadman
p4015
I0
sVunhappi
p4016
I1
sVtyrol
p4017
I0
sV(late
p4018
I1
sVexpress
p4019
I0
sV-you
p4020
I0
sVshop-keep
p4021
I0
sVbatter
p4022
I0
sVwrinkl
p4023
I0
sVtheft
p4024
I0
sVuncomfort
p4025
I0
sVcought
p4026
I0
sVprovid
p4027
I0
sVcommon
p4028
I0
sVgospel
p4029
I0
sVlion
p4030
I2
sVtender
p4031
I1
sVreserv
p4032
I0
sV11th
p4033
I0
sVcozy
p4034
I0
sVexpert
p4035
I0
sVsometh
p4036
I21
sVexperi
p4037
I6
sValtern
p4038
I1
sVappreci
p4039
I0
sVmailbox
p4040
I0
sVbarrack
p4041
I0
sVexaminor
p4042
I1
sValon
p4043
I97
sVforeign
p4044
I2
sValow
p4045
I0
sVgypsi
p4046
I0
sVsimpli
p4047
I1
sVpoint
p4048
I3
sVsuppli
p4049
I0
sVthroughout
p4050
I0
sVsecret
p4051
I1
sVhalf-teas
p4052
I0
sVreplace)
p4053
I0
sVbar-person
p4054
I0
sVgay
p4055
I1
sVdance)
p4056
I0
sVgas
p4057
I0
sVunnecessarili
p4058
I0
sVunderstand
p4059
I2
sVcruelti
p4060
I0
sVhitchcock
p4061
I1
sVfur
p4062
I0
sVbill
p4063
I0
sVcrutch
p4064
I0
sVfun
p4065
I0
sVeveryon
p4066
I2
sVprejudic
p4067
I0
sVnaive)
p4068
I0
sVcentr
p4069
I1
sVitself
p4070
I2
sVcenturi
p4071
I0
sVmisdemeanour
p4072
I0
sVbutcher
p4073
I0
sVitali
p4074
I3
sVcorridor
p4075
I0
sS'(3'
p4076
I1
sVcopperbelt
p4077
I0
sVeng)
p4078
I0
sVflurri
p4079
I0
sVyesterday
p4080
I0
sVmoment
p4081
I5
sV(40
p4082
I1
sVtimid
p4083
I0
sVtask
p4084
I0
sVsomet
p4085
I0
sVchemistri
p4086
I2
sVspent
p4087
I5
sVmidair)
p4088
I1
sVwithdraw
p4089
I0
sVswiss
p4090
I0
sVprotrud
p4091
I0
sVtast
p4092
I0
sVspend
p4093
I1
sVexplan
p4094
I0
sVmom
p4095
I1
sVfeira
p4096
I1
sVfrom
p4097
I71
sV1960
p4098
I1
sVinebri
p4099
I0
sVshape
p4100
I0
sVimpertin
p4101
I0
sVdepriv
p4102
I0
sVcut
p4103
I3
sVcup
p4104
I0
sVpersuad
p4105
I0
sV(mistreat
p4106
I0
sVforbid
p4107
I0
sVcue
p4108
I0
sVsnap
p4109
I0
sVeaster
p4110
I0
sVtrueli
p4111
I0
sVbig
p4112
I11
sVbid
p4113
I0
sVjudgement
p4114
I1
sVbit
p4115
I2
sVknock
p4116
I11
sV(chronical)
p4117
I0
sVnudist-beach
p4118
I0
sVglove
p4119
I1
sVprincip
p4120
I2
sVfoolish
p4121
I1
sVdownstair
p4122
I1
sVeverybobi
p4123
I0
sVoften
p4124
I5
sVcoleagu
p4125
I0
sVback
p4126
I47
sVbach
p4127
I1
sVguilt-consci
p4128
I0
sVstrongest
p4129
I0
sVmirror
p4130
I0
sVnicaragua
p4131
I0
sVscale
p4132
I0
sVstep-broth
p4133
I0
sVculprit
p4134
I1
sVpet
p4135
I0
sVper
p4136
I0
sVsubstitut
p4137
I0
sVmathemat
p4138
I0
sVlarg
p4139
I9
sVlard
p4140
I0
sVpee
p4141
I0
sVthhe
p4142
I0
sVeither
p4143
I1
sVpatient
p4144
I3
sVbenidorm
p4145
I0
sV(aprox
p4146
I0
sVfed
p4147
I0
sVpatienc
p4148
I0
sVappont
p4149
I0
sVexample:
p4150
I0
sVimpos
p4151
I0
sVelucid
p4152
I0
sVconstraint
p4153
I0
sVdrama
p4154
I0
sVobstruct
p4155
I1
sVboy)
p4156
I0
sVjimmi
p4157
I0
sVlesson
p4158
I5
sVgerm
p4159
I0
sVparet
p4160
I0
sVfictiti
p4161
I0
sVagricultur
p4162
I0
sVerrand
p4163
I0
sVinclud
p4164
I1
sVforward
p4165
I0
sVbsc
p4166
I1
sVclass-mat
p4167
I1
sVunconsider
p4168
I0
sVtranslat
p4169
I0
sVswitchboard
p4170
I0
sV(la
p4171
I0
sVzhu
p4172
I0
sVstrang
p4173
I12
sVplanet
p4174
I0
sVcurv
p4175
I1
sVcurt
p4176
I0
sVflop
p4177
I0
sVconstant
p4178
I1
sVcurs
p4179
I0
sVcure
p4180
I0
sVcafe
p4181
I0
sVprevail
p4182
I0
sVlimburgian
p4183
I0
sVcellar
p4184
I5
sVshopkeep
p4185
I0
sVeveyon
p4186
I0
sVcater
p4187
I0
sVlent
p4188
I0
sVcloud-burst
p4189
I1
sVdeserv
p4190
I0
sVdowncast
p4191
I0
sV(may
p4192
I1
sV2000
p4193
I0
sVnoon
p4194
I3
sVwikstrm
p4195
I0
sVgrnadfath
p4196
I0
sVuncleanli
p4197
I0
sVcomplained;
p4198
I0
sVhappy;
p4199
I0
sVrefec
p4200
I0
sVprivat
p4201
I1
sVsensit
p4202
I0
sVpushbik
p4203
I1
sVfrog-burg
p4204
I0
sVadjoin
p4205
I0
sVweather
p4206
I5
sVbkoke
p4207
I0
sVrandom
p4208
I0
sVdisclos
p4209
I2
sVmous
p4210
I0
sVvolum
p4211
I0
sVsurgeon
p4212
I0
sV(boy
p4213
I0
sVprefect
p4214
I0
sVshock
p4215
I1
sVgipsi
p4216
I1
sVfortun
p4217
I1
sVcrow
p4218
I1
sVmenstrat
p4219
I0
sVaccomod
p4220
I1
sVcopenhagen
p4221
I1
sV(realli
p4222
I0
sVslaughtered;
p4223
I0
sVlumber
p4224
I0
sVimpuls
p4225
I0
sVtoast
p4226
I0
sVclosur
p4227
I1
sVbachelor
p4228
I0
sVsink
p4229
I0
sVsing
p4230
I1
sVsinc
p4231
I3
sVremark
p4232
I0
sVdilat
p4233
I0
sS'30'
p4234
I1
sS'35'
p4235
I0
sVamidophen
p4236
I0
sVclimb
p4237
I11
sVlimp
p4238
I0
sVlimb
p4239
I0
sV(girl-friend?)
p4240
I0
sVwardrob
p4241
I2
sVbreakup
p4242
I0
sVkiosk
p4243
I0
sVname)
p4244
I0
sVthatch
p4245
I1
sVtrain
p4246
I10
sVboy-friend
p4247
I1
sViii
p4248
I0
sVseal-hunt
p4249
I0
sValik
p4250
I0
sVstep-moth
p4251
I0
sVcambridg
p4252
I0
sVunreal
p4253
I1
sVobvious
p4254
I0
sVfetch
p4255
I1
sValiv
p4256
I1
sVemploye
p4257
I0
sVluggag
p4258
I1
sVdownhil
p4259
I0
sVeverywher
p4260
I1
sVsurfac
p4261
I2
sVlame
p4262
I0
sVlamp
p4263
I2
sVforest
p4264
I12
sVhousegarden
p4265
I0
sVfran
p4266
I0
sVleukemia
p4267
I0
sVstepfath
p4268
I0
sVphysic
p4269
I3
sVkiosqu
p4270
I0
sVchief
p4271
I0
sV(going)
p4272
I0
sVfurious
p4273
I0
sVinsufficiet
p4274
I0
sVaustrian
p4275
I0
sVpanhandl
p4276
I0
sVbiarritz
p4277
I0
sS'la'
p4278
I1
sVstiiborn
p4279
I1
sVkindergarten
p4280
I1
sVblatant
p4281
I0
sS'lp'
p4282
I0
sVdad
p4283
I5
sVmicrobiolog
p4284
I1
sVgreater
p4285
I1
sVdam
p4286
I1
sVspell
p4287
I0
sVmention
p4288
I2
sVday
p4289
I55
sVstrive
p4290
I0
sVcontus
p4291
I0
sVskid-row
p4292
I0
sVseemad
p4293
I0
sVdisregard
p4294
I0
sVthwart
p4295
I0
sVstudent-lik
p4296
I0
sVintellig
p4297
I0
sVillegitim
p4298
I0
sVsexual
p4299
I6
sVpantri
p4300
I0
sVdefend
p4301
I0
sVdefenc
p4302
I1
sVrepress
p4303
I0
sVmate
p4304
I1
sVbarley
p4305
I0
sVcoutri
p4306
I0
sVred
p4307
I4
sVclarifi
p4308
I0
sVinsid
p4309
I3
sVfrank
p4310
I0
sVinvad
p4311
I1
sVc119
p4312
I1
sVreleas
p4313
I0
sVlikelihood
p4314
I0
sVafterward
p4315
I0
sVseptemb
p4316
I0
sVyard
p4317
I1
sVmortar
p4318
I1
sVinspit
p4319
I0
sVmortal
p4320
I0
sVsouth
p4321
I0
sV(sexual)
p4322
I0
sV(twins)
p4323
I0
sV(break
p4324
I0
sVvandal
p4325
I0
sV(almanach)
p4326
I0
sVvulgar
p4327
I0
sVlove)
p4328
I0
sVmessag
p4329
I0
sVdustbin
p4330
I0
sVlapa
p4331
I0
sVnut
p4332
I0
sVcabin
p4333
I0
sVgear
p4334
I0
sVhernan
p4335
I0
sV(three
p4336
I0
sVtransfus
p4337
I0
sVnobodi
p4338
I3
sVmechan
p4339
I0
sVunjustic
p4340
I0
sVstructur
p4341
I0
sVcharact
p4342
I3
sVsweden
p4343
I2
sVlover
p4344
I0
sV(female)
p4345
I1
sVschool-girl
p4346
I0
sVagress
p4347
I0
sVhave
p4348
I56
sVthroat
p4349
I0
sVtidi
p4350
I0
sVmid
p4351
I0
sV(no
p4352
I0
sVroad-block
p4353
I1
sVmix
p4354
I0
sVpreliminari
p4355
I0
sVeight
p4356
I1
sVhandbag
p4357
I1
sVpayment
p4358
I0
sVgather
p4359
I1
sVrequest
p4360
I0
sVabsurd
p4361
I0
sVbeetl
p4362
I0
sVtext
p4363
I0
sV(disloyal)
p4364
I0
sVkitw
p4365
I0
sVtexa
p4366
I0
sVstaff
p4367
I0
sVbicycl
p4368
I6
sVmadman
p4369
I1
sVhyster
p4370
I0
sVprolong
p4371
I0
sVsatan
p4372
I2
sVteam)
p4373
I0
sVcommunist
p4374
I0
sVbeat
p4375
I2
sVdisagre
p4376
I0
sVbear
p4377
I2
sVbeam
p4378
I1
sVbean
p4379
I0
sVincreas
p4380
I0
sVbath-tub
p4381
I0
sVorgan
p4382
I2
sVashtray
p4383
I0
sVnonacadem
p4384
I0
sVintegr
p4385
I0
sVinfidel
p4386
I0
sVapolog
p4387
I2
sVmalfunct
p4388
I0
sVevrey
p4389
I0
sVracket
p4390
I0
sV(pass)
p4391
I0
sVturku
p4392
I0
sVreform
p4393
I0
sV(obvious
p4394
I1
sVprogress
p4395
I0
sVsorrow
p4396
I0
sVinstant
p4397
I0
sVjoke
p4398
I0
sVequal
p4399
I0
sVinstanc
p4400
I0
sVswim
p4401
I10
sVfreeli
p4402
I0
sVaquarium
p4403
I0
sVcomment
p4404
I2
sVlaugh
p4405
I0
sVfright
p4406
I2
sV49er
p4407
I0
sVelectr
p4408
I3
sVcurtain
p4409
I0
sV(somewhat
p4410
I0
sVconcours
p4411
I0
sVprotect
p4412
I1
sVassert
p4413
I0
sVk100
p4414
I0
sVbull
p4415
I3
sVgeneral
p4416
I0
sVarisen
p4417
I1
sVstep-dad
p4418
I0
sV7-8
p4419
I1
sVplain
p4420
I1
sVdefin
p4421
I0
sVunpass
p4422
I0
sVmororcycl
p4423
I1
sVsister)
p4424
I0
sVaw
p4425
I3
sVhelper
p4426
I0
sValmost
p4427
I26
sVshame)
p4428
I0
sVpartner
p4429
I1
sS')'
p4430
I0
sVquadrupl
p4431
I1
sVmaurin
p4432
I0
sVprais
p4433
I0
sVselfish
p4434
I0
sVsauna
p4435
I0
sVjudgment
p4436
I0
sVcenter
p4437
I0
sVnevertheless
p4438
I0
sVthought
p4439
I27
sVchoos
p4440
I0
sVlatest
p4441
I0
sVsister-in-law
p4442
I0
sVclinic
p4443
I1
sVsurpass
p4444
I0
sVtest)
p4445
I0
sVtone
p4446
I0
sVwork)
p4447
I0
sVstation-hal
p4448
I0
sVlake
p4449
I4
sVbench
p4450
I1
sVadd
p4451
I0
sVreunit
p4452
I0
sVcrossroad
p4453
I0
sVout-of-the-way
p4454
I1
sVadk
p4455
I0
sVmatch
p4456
I1
sVrealiz
p4457
I12
sVrealis
p4458
I1
sVinsert
p4459
I0
sVlike
p4460
I10
sVsuccess
p4461
I2
sVsofa
p4462
I0
sVchick
p4463
I0
sVsoft
p4464
I1
sVchico
p4465
I0
sVhair
p4466
I1
sVcrazili
p4467
I0
sVconvey
p4468
I0
sVproper
p4469
I0
sVpaddock
p4470
I0
sVchichiri
p4471
I0
sVesp
p4472
I0
sVzcbc
p4473
I0
sVworthi
p4474
I0
sVnoisi
p4475
I0
sVhost
p4476
I0
sVreveng
p4477
I0
sValthough
p4478
I3
sVpanel
p4479
I2
sVabout
p4480
I49
sVactual
p4481
I1
sVwithdrew
p4482
I0
sVjustif
p4483
I0
sVdiscard
p4484
I0
sVtome
p4485
I0
sS'!!'
p4486
I0
sVdesper
p4487
I0
sS'!)'
p4488
I0
sVunrequit
p4489
I0
sVchronic
p4490
I1
sVesteem
p4491
I0
sVawhil
p4492
I0
sVlettuc
p4493
I0
sVneattidi
p4494
I0
sV1984
p4495
I1
sV1985
p4496
I1
sV1982
p4497
I0
sV1983
p4498
I1
sV1980
p4499
I0
sVpictur
p4500
I1
sVhassl
p4501
I1
sVbuy
p4502
I1
sVunexpect
p4503
I5
sVbus
p4504
I21
sVchildren;
p4505
I0
sVbut
p4506
I35
sVnazi-germani
p4507
I0
sVbug
p4508
I0
sVseiz
p4509
I1
sVmisti
p4510
I1
sVexacut
p4511
I0
sVimmobil
p4512
I0
sVcaretak
p4513
I0
sVwhisper
p4514
I1
sVdure
p4515
I30
sVpig
p4516
I0
sVcircul
p4517
I1
sVguiltier
p4518
I0
sVpit
p4519
I2
sVcampus
p4520
I3
sVprobabl
p4521
I1
sVaccident)
p4522
I0
sVlatrin
p4523
I0
sVguidanc
p4524
I0
sS'45'
p4525
I1
sVdetail
p4526
I0
sVvirtual
p4527
I0
sVdetain
p4528
I1
sVaccident;
p4529
I0
sVheadmistress
p4530
I0
sVquietest
p4531
I0
sVdraught
p4532
I0
sVbasketbal
p4533
I0
sVstirrer
p4534
I0
sVpupil
p4535
I1
sVyell
p4536
I1
sVspaulo
p4537
I0
sVhatr
p4538
I0
sVhitch
p4539
I0
sVsleev
p4540
I0
sVsleep
p4541
I22
sVhate
p4542
I0
sVdynasti
p4543
I0
sVundef
p4544
I0
sVstationeri
p4545
I0
sV(for
p4546
I1
sVpoorest
p4547
I0
sVconcret
p4548
I0
sVunder
p4549
I14
sVpride
p4550
I0
sV(fog
p4551
I1
sVsuburban
p4552
I0
sVplayground
p4553
I0
sVeveri
p4554
I7
sVrisk
p4555
I2
sVrise
p4556
I1
sVtenni
p4557
I0
sVident
p4558
I0
sVarous
p4559
I0
sVsenil
p4560
I0
sVschool
p4561
I41
sVmotorcyclist
p4562
I1
sVbarbecu
p4563
I1
sVenjoy
p4564
I0
sVnaiv
p4565
I0
sValmond
p4566
I0
sVdirect
p4567
I7
sVnail
p4568
I1
sVblindworm
p4569
I0
sVstreet
p4570
I31
sVmanur
p4571
I0
sVstreep
p4572
I0
sVoverdu
p4573
I0
sVinjection)
p4574
I0
sV(relationship
p4575
I0
sVblue
p4576
I0
sVbluf
p4577
I0
sVhide
p4578
I0
sVchrist
p4579
I0
sVbeaten
p4580
I5
sVpoison
p4581
I1
sVsung
p4582
I0
sVconduct
p4583
I1
sVliberti
p4584
I0
sVlodg
p4585
I0
sVbeco
p4586
I0
sVpath
p4587
I2
sVenrol
p4588
I1
sVintead
p4589
I0
sVsettler
p4590
I0
sVprecis
p4591
I0
sVmentor
p4592
I0
sVtremend
p4593
I0
sVstray
p4594
I1
sVdescrib
p4595
I0
sVwould
p4596
I68
sVprescript
p4597
I0
sVnkhoma
p4598
I1
sVzemba
p4599
I0
sVused)
p4600
I0
sV25th
p4601
I0
sVgriev
p4602
I0
sVvarsiti
p4603
I0
sVgrief
p4604
I0
sVphone
p4605
I9
sV(had
p4606
I0
sVpouch
p4607
I0
sVmust
p4608
I0
sS'me'
p4609
I176
sVjoin
p4610
I2
sVhenri
p4611
I1
sVsevic
p4612
I0
sVjoiy
p4613
I0
sVnorm
p4614
I0
sS'mr'
p4615
I0
sVbrake
p4616
I3
sS'my'
p4617
I413
sVquarrel
p4618
I2
sVjoyous
p4619
I0
sVcrocokil
p4620
I1
sVoverheard
p4621
I0
sVattract
p4622
I1
sVend
p4623
I9
sVsantand
p4624
I1
sVbunk
p4625
I2
sVassistat
p4626
I0
sVceremoni
p4627
I0
sVdrummer
p4628
I0
sVent
p4629
I0
sV(physic
p4630
I0
sVenquiri
p4631
I0
sVgate
p4632
I1
sVcollaps
p4633
I0
sVmoodi
p4634
I0
sVdialect
p4635
I0
sVmess
p4636
I0
sVlump
p4637
I0
sVbefor
p4638
I60
sVspous
p4639
I0
sVamic
p4640
I0
sVexclud
p4641
I1
sVfashion-show:
p4642
I0
sVenviron
p4643
I1
sVenter
p4644
I12
sVexclus
p4645
I0
sVfoetal
p4646
I1
sVcarnav
p4647
I1
sVcomposit
p4648
I0
sVover
p4649
I18
sVorang
p4650
I0
sVbecaus
p4651
I29
sVsproul
p4652
I1
sVlondon
p4653
I0
sVoven
p4654
I0
sV(more
p4655
I0
sVimf
p4656
I0
sVcomprehend
p4657
I0
sVtramp
p4658
I1
sVopportuinti
p4659
I0
sVinattention;
p4660
I1
sVfade
p4661
I0
sV400
p4662
I0
sVbisshop
p4663
I0
sV30th
p4664
I0
sVincontin
p4665
I0
sVexpect)
p4666
I1
sVchoic
p4667
I0
sVseve
p4668
I1
sVincauti
p4669
I0
sVeach
p4670
I4
sVyatch
p4671
I1
sVtram:
p4672
I0
sV(bribe)
p4673
I1
sVprohibit
p4674
I1
sVexpuls
p4675
I1
sVunapp
p4676
I0
sVleading-str
p4677
I0
sVunscrew
p4678
I0
sVsaturday
p4679
I3
sVfragil
p4680
I0
sVdepress
p4681
I0
sVgoe
p4682
I0
sVgod
p4683
I1
sVpsychic
p4684
I0
sVtonsil
p4685
I2
sVday)
p4686
I0
sVgot
p4687
I33
sVunpunctu
p4688
I0
sVpotti
p4689
I0
sVcomputer-assign
p4690
I0
sVhang
p4691
I2
sVfree
p4692
I2
sVwhereupon
p4693
I0
sVrain
p4694
I2
sVhand
p4695
I10
sVpuzzl
p4696
I0
sVprobat
p4697
I0
sVfilter
p4698
I0
sVhopeless
p4699
I0
sVonto
p4700
I3
sVfantasi
p4701
I0
sVrang
p4702
I3
sVhygien
p4703
I0
sVtrembl
p4704
I1
sVrank
p4705
I0
sVtoo)
p4706
I0
sVrestrict
p4707
I0
sValreadi
p4708
I5
sVsober
p4709
I0
sVprimari
p4710
I4
sVtoy
p4711
I0
sVsarcasm
p4712
I0
sVtop
p4713
I2
sVtow
p4714
I0
sVsarcast
p4715
I0
sVtoo
p4716
I7
sVtom
p4717
I0
sVtog
p4718
I0
sVmurder
p4719
I2
sVtook
p4720
I12
sVincur
p4721
I0
sVconserv
p4722
I0
sVflame
p4723
I0
sV10th
p4724
I1
sVrag
p4725
I0
sVfashion
p4726
I0
sVhandkerchief
p4727
I0
sVran
p4728
I16
sV(white)
p4729
I0
sV1972
p4730
I0
sVraw
p4731
I0
sVrat
p4732
I0
sVseminar
p4733
I3
sVray
p4734
I0
sVlaugher
p4735
I0
sV1968
p4736
I0
sVhouse-hunting:
p4737
I0
sV1966
p4738
I0
sS'-'
p4739
I44
sVsnow
p4740
I0
sVthorough
p4741
I2
sV(veri
p4742
I1
sVclient
p4743
I0
sVvice-versa
p4744
I0
sVsnob
p4745
I0
sVthough
p4746
I4
sVex-colleagu
p4747
I0
sVphantasi
p4748
I0
sVcoin
p4749
I0
sVsecodari
p4750
I0
sVjean
p4751
I0
sVglow
p4752
I2
sVyanu
p4753
I0
sVtanzania
p4754
I0
sVcathol
p4755
I0
sVmetal
p4756
I1
sVfreeway
p4757
I1
sVdeclar
p4758
I2
sVqueen
p4759
I0
sVradio
p4760
I2
sVqueer
p4761
I1
sVearth
p4762
I1
sVabsolut
p4763
I0
sVspite
p4764
I0
sVsympathet
p4765
I0
sVdisgust
p4766
I2
sVkali
p4767
I0
sVflorenc
p4768
I1
sVwatch
p4769
I16
sVfluid
p4770
I0
sVreport
p4771
I8
sVsituation:
p4772
I0
sVco-own
p4773
I0
sVtwice
p4774
I1
sVegoist
p4775
I0
sVswept
p4776
I0
sVhabit
p4777
I0
sVliquor
p4778
I0
sVnijegen
p4779
I0
sVresist
p4780
I0
sVbee
p4781
I0
sV(girl)
p4782
I1
sV(bi
p4783
I1
sVgrumbl
p4784
I0
sV(be
p4785
I0
sVdiscoveri
p4786
I0
sVmud
p4787
I0
sVmug
p4788
I1
sVfinger
p4789
I2
sVmum
p4790
I3
sVapproach
p4791
I8
sVsomebobi
p4792
I0
sVweak
p4793
I0
sVlaryng
p4794
I0
sVboss
p4795
I0
sVwear
p4796
I1
sVnews
p4797
I1
sVgoddess
p4798
I0
sVfault
p4799
I0
sVcolloquium
p4800
I1
sVjelli
p4801
I0
sVenterprise)
p4802
I0
sVtrust
p4803
I0
sVhitler
p4804
I0
sVnake
p4805
I1
sVbathroom
p4806
I0
sVnonsens
p4807
I0
sVndola
p4808
I0
sVbeen
p4809
I28
sVteacher)
p4810
I0
sVaccumul
p4811
I0
sVbeer
p4812
I3
sVnote-book
p4813
I0
sVcommunion
p4814
I0
sVoccipit
p4815
I0
sVloft
p4816
I0
sVstanding;
p4817
I1
sVopposum
p4818
I0
sVbladder
p4819
I0
sVcraft
p4820
I0
sVcherri
p4821
I2
sVcatch
p4822
I3
sS'n'
p4823
I1
sVgave
p4824
I7
sVgarag
p4825
I0
sVneed
p4826
I3
sVex-boyfriend
p4827
I0
sVplaymat
p4828
I0
sVcross-countri
p4829
I0
sVsuggest
p4830
I1
sVwound
p4831
I1
sVcomplex
p4832
I0
sVunsavouri
p4833
I0
sVvideo-tap
p4834
I0
sVcomplet
p4835
I2
sVdiazepam
p4836
I0
sVsocial
p4837
I3
sVsuburb
p4838
I0
sV(big
p4839
I1
sVaisl
p4840
I0
sVgreatest
p4841
I0
sVmother
p4842
I26
sVeveryth
p4843
I0
sVreperbahn
p4844
I0
sVadvance)
p4845
I0
sVenlighten
p4846
I0
sVexpos
p4847
I3
sVinterfer
p4848
I0
sVbonfir
p4849
I0
sVbrisban
p4850
I1
sVels
p4851
I6
sS'5c'
p4852
I0
sVpharmaci
p4853
I0
sVroach
p4854
I0
sVburnt
p4855
I0
sVsadistinc
p4856
I0
sVapart
p4857
I2
sVamok
p4858
I0
sVgift
p4859
I0
sVprimary-school
p4860
I0
sVhunt
p4861
I1
sVdishonest
p4862
I0
sS'50'
p4863
I1
sS'53'
p4864
I0
sVunstabl
p4865
I0
sVhung
p4866
I1
sV5'
p4867
I0
sVdelinqu
p4868
I1
sV(peopl
p4869
I0
sVaccost
p4870
I0
sVindirect
p4871
I0
sVici
p4872
I3
sVcooper
p4873
I0
sVicc
p4874
I0
sVinter-rail-trip
p4875
I0
sVboss'car
p4876
I0
sVice
p4877
I7
sVconvict
p4878
I1
sVhsc
p4879
I0
sVdiscount
p4880
I0
sVplug
p4881
I0
sVocclus
p4882
I1
sVchoke
p4883
I1
sVpatern
p4884
I0
sVunfortun
p4885
I3
sVfestiv
p4886
I0
sVdinner
p4887
I0
sVplus
p4888
I0
sVproduc
p4889
I0
sVfroze
p4890
I0
sVcivil
p4891
I0
sVtackl
p4892
I1
sVlay-out
p4893
I0
sVdecapit
p4894
I0
sVbath
p4895
I0
sVcafeteria
p4896
I0
sVfrustrat
p4897
I0
sVomen
p4898
I1
sVoccurred)
p4899
I1
sVstuck
p4900
I2
sVreli
p4901
I0
sVfought
p4902
I1
sVflatter
p4903
I0
sVhead
p4904
I3
sVpre-univers
p4905
I0
sS'6'
p4906
I1
sVplumber
p4907
I0
sVheat
p4908
I1
sVhear
p4909
I9
sVrefriger
p4910
I0
sVcounsel
p4911
I0
sVprobatori
p4912
I0
sVuncoop
p4913
I0
sVbristl
p4914
I0
sVtrip
p4915
I8
sVassembl
p4916
I0
sS'no'
p4917
I26
sS'na'
p4918
I0
sVastrologyc
p4919
I0
sVwhen
p4920
I458
sS'ne'
p4921
I0
sS'nz'
p4922
I0
sVstagnant
p4923
I0
sVtie
p4924
I1
sVdepot
p4925
I1
sVappetis
p4926
I0
sVapologet
p4927
I0
sVcivo
p4928
I0
sVconsid
p4929
I2
sVdullest
p4930
I0
sVthourgh
p4931
I0
sVyounger
p4932
I2
sVskunk
p4933
I0
sVlonger
p4934
I0
sVbullet
p4935
I1
sVvietnam
p4936
I0
sVserious
p4937
I8
sVbackward
p4938
I0
sVcoach
p4939
I2
sVrob
p4940
I5
sVcelebr
p4941
I0
sVroe
p4942
I0
sVrow
p4943
I0
sVmeryl
p4944
I0
sVenvironment
p4945
I0
sVsourc
p4946
I0
sVunfamiliar
p4947
I2
sVcook
p4948
I0
sVwinning)
p4949
I0
sVperfom
p4950
I0
sVcool
p4951
I1
sVmarried)
p4952
I0
sVpoliceman
p4953
I1
sVbrother
p4954
I19
sVbrothel
p4955
I0
sVquick
p4956
I0
sVurologist
p4957
I1
sVchicken
p4958
I0
sVchoral
p4959
I0
sVbloodsuck
p4960
I0
sVrepli
p4961
I0
sVexam)
p4962
I0
sVtarmac
p4963
I0
sVkilomet
p4964
I4
sVguilt)
p4965
I0
sVdrink)
p4966
I0
sVnear-accid
p4967
I1
sVwater
p4968
I6
sVentertain
p4969
I0
sVwitch
p4970
I0
sVtwentieth
p4971
I0
sV6-8
p4972
I0
sV6-7
p4973
I0
sVboast
p4974
I0
sVhss
p4975
I0
sVexamn
p4976
I10
sVthirti
p4977
I0
sVhealthi
p4978
I0
sVguilti
p4979
I0
sVmyself)
p4980
I0
sVswerv
p4981
I2
sVforev
p4982
I0
sVuneduc
p4983
I0
sV1st
p4984
I2
sVpeep
p4985
I1
sVvivid
p4986
I0
sVmemori
p4987
I1
sV(behind
p4988
I0
sVaustralian
p4989
I0
sVmsc
p4990
I3
sVtoday
p4991
I0
sVconductor
p4992
I0
sVdrown
p4993
I6
sVaccept
p4994
I4
sVpiano
p4995
I0
sVreligi
p4996
I0
sVjudo
p4997
I0
sVsuffoc
p4998
I0
sVdiscontinu
p4999
I0
sVjudg
p5000
I0
sVinadequ
p5001
I0
sVpurpos
p5002
I0
sVslightest
p5003
I0
sVsepart
p5004
I1
sVcritic
p5005
I2
sVsurround
p5006
I1
sVlusaka
p5007
I1
sVswedish
p5008
I0
sS'1'
p5009
I1
sValway
p5010
I5
sV(230
p5011
I1
sVanyon
p5012
I1
sVfourth
p5013
I2
sVcanccer
p5014
I0
sVoccass
p5015
I1
sVcocktail
p5016
I0
sV(almost)
p5017
I0
sVexhibitionist
p5018
I1
sVeighth
p5019
I0
sVclassroom
p5020
I1
sV120
p5021
I1
sVpractic
p5022
I7
sVliquid
p5023
I0
sVinform
p5024
I1
sVpractis
p5025
I0
sVanticip
p5026
I1
sVmidnight
p5027
I7
sVbacam
p5028
I0
sVmangwana
p5029
I0
sVfrontwindow
p5030
I0
sVpassag
p5031
I1
sVhe'd
p5032
I0
sVplatform
p5033
I1
sV(group)
p5034
I0
sVunderneath
p5035
I0
sVloneli
p5036
I0
sVconquer
p5037
I0
sVsexual)
p5038
I0
sVterm
p5039
I3
sVname
p5040
I3
sVopera
p5041
I0
sVclutch
p5042
I0
sVcerebr
p5043
I1
sVvitosha
p5044
I0
sVpost-gradu
p5045
I0
sVindividu
p5046
I0
sVsubjug
p5047
I0
sVputrif
p5048
I0
sVputrid
p5049
I0
sVdiall
p5050
I0
sVprofit
p5051
I0
sV12-year-old
p5052
I0
sVshouldn't
p5053
I0
sVuncl
p5054
I6
sVfactori
p5055
I0
sVshe
p5056
I24
sVglimps
p5057
I0
sVmigrat
p5058
I0
sVcontain
p5059
I0
sVtheori
p5060
I0
sVprescrib
p5061
I0
sVgovren
p5062
I0
sVrefus
p5063
I5
sVmotion
p5064
I0
sVturn
p5065
I19
sVplacc
p5066
I0
sVplace
p5067
I21
sVswing
p5068
I1
sVimpost
p5069
I0
sVimposs
p5070
I0
sV1000
p5071
I0
sVorigin
p5072
I0
sVclumsi
p5073
I0
sVfeign
p5074
I0
sV(k10)
p5075
I0
sVbackyard
p5076
I0
sVgiven
p5077
I8
sVteenag
p5078
I1
sVplastic
p5079
I0
sVadject
p5080
I0
sVcircl
p5081
I0
sVorganizor
p5082
I0
sVwhite
p5083
I1
sVhug
p5084
I0
sVcope
p5085
I2
sVseason
p5086
I0
sVcopi
p5087
I0
sVspecifi
p5088
I0
sVhut
p5089
I3
sVtempera
p5090
I0
sVgrunt
p5091
I0
sVholder
p5092
I0
sVserv
p5093
I0
sVbewitch
p5094
I2
sVbalanc
p5095
I2
sVposit
p5096
I2
sVinter-colleg
p5097
I1
sVseri
p5098
I0
sVdrinknig
p5099
I1
sVanf
p5100
I0
sVpri
p5101
I0
sVani
p5102
I7
sVant
p5103
I0
sVmater
p5104
I1
sVrent
p5105
I0
sVmarathon
p5106
I0
sVnarrow-minded
p5107
I0
sVtechniqu
p5108
I0
sVmoreov
p5109
I0
sVideal
p5110
I0
sVpencil)
p5111
I0
sVblunt
p5112
I0
sVsurf
p5113
I1
sVsure
p5114
I4
sVfreshman
p5115
I0
sVproud
p5116
I0
sVsenior
p5117
I0
sVhungri
p5118
I0
sVfirecrack
p5119
I0
sVslope
p5120
I3
sVcheat
p5121
I1
sVcheap
p5122
I0
sVpermiss
p5123
I0
sVmister
p5124
I0
sVgule
p5125
I1
sVgull
p5126
I0
sVstate
p5127
I0
sVcrime
p5128
I1
sVgulp
p5129
I0
sVwood
p5130
I3
sVanalyz
p5131
I0
sVbegggar
p5132
I0
sVicebox
p5133
I0
sVdekker
p5134
I1
sVflute-teach
p5135
I0
sVtailor
p5136
I0
sVssc
p5137
I1
sVreveal
p5138
I1
sVdramat
p5139
I0
sVworkmat
p5140
I1
sVbelogradchik
p5141
I0
sVpicnic
p5142
I1
sVconscienc
p5143
I0
sVparentsfriend
p5144
I0
sVdetect
p5145
I1
sVwayn
p5146
I0
sVprize-competit
p5147
I0
sVguitar
p5148
I0
sVcycl
p5149
I7
sVcoma
p5150
I0
sVcome
p5151
I35
sVme(blam
p5152
I0
sVreaction
p5153
I2
sVvolley-bal
p5154
I0
sVregion
p5155
I0
sS'23'
p5156
I0
sVruptur
p5157
I0
sVquiet
p5158
I6
sVcontract
p5159
I0
sVsicilia
p5160
I0
sVway)
p5161
I0
sVrailway
p5162
I3
sVlillehamm
p5163
I0
sVvveri
p5164
I0
sVcolor
p5165
I0
sS'6)'
p5166
I1
sVpot
p5167
I0
sVinspir
p5168
I0
sVperiod
p5169
I1
sVpop
p5170
I0
sS'60'
p5171
I1
sVpole
p5172
I0
sV(ear
p5173
I0
sVtwo-year
p5174
I0
sVturkey
p5175
I0
sVcoupl
p5176
I2
sVuncleani
p5177
I0
sVkilometr
p5178
I2
sVin-law
p5179
I0
sV500
p5180
I0
sV630
p5181
I1
sVrepons
p5182
I0
sV(angri
p5183
I0
sVchoclal
p5184
I0
sVimpati
p5185
I0
sVspirit
p5186
I1
sVrobber
p5187
I4
sVpilot
p5188
I0
sVcase
p5189
I0
sVmyself
p5190
I17
sVslipperi
p5191
I0
sVlong-dist
p5192
I0
sVcash
p5193
I0
sVcast
p5194
I0
sVxiith
p5195
I0
sV50p
p5196
I0
sVfuneral:
p5197
I0
sVformalin
p5198
I0
sV(i'm
p5199
I0
sVvesa
p5200
I0
sVperson:
p5201
I0
sV(i'd
p5202
I0
sVauthor
p5203
I1
sVbowl
p5204
I1
sVanbd
p5205
I0
sVethiopia
p5206
I0
sVmacaroni
p5207
I0
sVeventu
p5208
I2
sVstatus
p5209
I0
sVapplaud
p5210
I0
sVctitic
p5211
I0
sVnest
p5212
I1
sVconfidenti
p5213
I0
sVdriver
p5214
I7
sVweed
p5215
I2
sVdirector
p5216
I0
sVpetticoat
p5217
I0
sVweep
p5218
I0
sVapplaus
p5219
I0
sVmidterm
p5220
I6
sVmoder
p5221
I0
sVreliev
p5222
I1
sVprotegt
p5223
I0
sVjustifi
p5224
I1
sVwithout
p5225
I10
sVrelief
p5226
I0
sVmodel
p5227
I0
sVviolenc
p5228
I1
sVtip
p5229
I1
sVactress
p5230
I0
sVviolent
p5231
I2
sVkill
p5232
I5
sVpolish
p5233
I0
sVblow
p5234
I0
sVadventur
p5235
I0
sVhint
p5236
I1
sVexcept
p5237
I1
sV7:20
p5238
I0
sVvulner
p5239
I0
sV93010
p5240
I1
sVcatarrh
p5241
I0
sVdusgust
p5242
I0
sVnappi
p5243
I0
sVdelhi
p5244
I1
sVtopper
p5245
I0
sVundrink
p5246
I0
sVexcret
p5247
I0
sVleft-hand
p5248
I0
sVdivorc
p5249
I1
sVsaniti
p5250
I0
sVtowel
p5251
I0
sVbracelet
p5252
I0
sVprejud
p5253
I0
sVdeliveri
p5254
I3
sVasciat
p5255
I0
sVmadrid
p5256
I0
sVcanteen
p5257
I0
sVintact
p5258
I1
sVmysteri
p5259
I0
sVunsubsid
p5260
I1
sVmood
p5261
I0
sS"o'"
p5262
I1
sVdefenceless
p5263
I0
sVlegal
p5264
I1
sVprpare
p5265
I0
sVunbeliev
p5266
I0
sVcomplic
p5267
I2
sS'2a'
p5268
I0
sVquit
p5269
I9
sVslaughter
p5270
I0
sVnudism
p5271
I0
sVkasungu
p5272
I0
sS'on'
p5273
I185
sVtvavni
p5274
I0
sS'ok'
p5275
I1
sVnsima
p5276
I0
sS'oh'
p5277
I0
sS'of'
p5278
I309
sVstand
p5279
I6
sVstank
p5280
I0
sS'or'
p5281
I22
sVaccredit
p5282
I0
sVtv-chair
p5283
I0
sVgare
p5284
I0
sVpick-up
p5285
I1
sVspinal
p5286
I0
sVchoir
p5287
I0
sVcatholic)
p5288
I0
sVinternational:
p5289
I0
sVthere
p5290
I62
sVracism
p5291
I0
sVaccquir
p5292
I0
sVstrict
p5293
I1
sVracist
p5294
I0
sVcadet
p5295
I0
sVvalley
p5296
I1
sVmachin
p5297
I1
sVlingadzi
p5298
I2
sVregard
p5299
I0
sVgodmoth
p5300
I0
sVamongst
p5301
I0
sVprocedur
p5302
I0
sVfaster
p5303
I0
sVgrass
p5304
I0
sVclasses)
p5305
I0
sVtoilet
p5306
I3
sVruffian
p5307
I1
sVcinema
p5308
I4
sVfrighten
p5309
I24
sVbritain
p5310
I0
sVrearrang
p5311
I0
sVidiot
p5312
I0
sVnecrophiliac
p5313
I0
sVpaddl
p5314
I1
sVcompel
p5315
I1
sVpaddi
p5316
I0
sVcomper
p5317
I0
sVcompet
p5318
I0
sVbiochemistri
p5319
I0
sVneuropsycholog
p5320
I1
sVchampionship
p5321
I0
sVoneself
p5322
I0
sVfinali
p5323
I0
sVfetid
p5324
I0
sVbriefli
p5325
I0
sVmuldoon
p5326
I0
sVwife
p5327
I2
sVpotenti
p5328
I0
sVdegrad
p5329
I0
sVall
p5330
I25
sVlack
p5331
I3
sVabil
p5332
I2
sVdish
p5333
I0
sVfollow
p5334
I13
sVsettlement
p5335
I0
sVpts
p5336
I1
sVthursday
p5337
I0
sVprogram
p5338
I1
sVhumili
p5339
I0
sVneglig
p5340
I0
sVliter
p5341
I0
sVthey'll
p5342
I1
sVsong
p5343
I0
sVfar
p5344
I3
sVfat
p5345
I0
sVpsychologist
p5346
I0
sVworst
p5347
I1
sVfao
p5348
I0
sVfailur
p5349
I4
sVunoffici
p5350
I0
sVticket
p5351
I1
sVfag
p5352
I0
sVco-passeng
p5353
I0
sVlist
p5354
I2
sVflick
p5355
I0
sVchilumba
p5356
I0
sVten
p5357
I3
sVtea
p5358
I0
sVsophomor
p5359
I0
sVbiolog
p5360
I7
sVpressur
p5361
I0
sVdesign
p5362
I0
sVunprepar
p5363
I1
sVpolicemen;
p5364
I0
sVter
p5365
I0
sVrath
p5366
I1
sVwill
p5367
I4
sVsue
p5368
I0
sVsun
p5369
I0
sVsum
p5370
I0
sVbrief
p5371
I0
sVcrush
p5372
I1
sVversion
p5373
I0
sVintersect
p5374
I1
sVwhan
p5375
I0
sVdeepli
p5376
I0
sVanniversari
p5377
I0
sVthemselv
p5378
I1
sVrehears
p5379
I0
sVbehaviour
p5380
I2
sVtage
p5381
I0
sVcommitt
p5382
I0
sVberkeley
p5383
I1
sVgoodby
p5384
I0
sVmisinterpret
p5385
I0
sVhigh-school
p5386
I0
sVbrother-in-law
p5387
I0
sVcolleag
p5388
I0
sVknow)
p5389
I0
sVproceed
p5390
I2
sVfaint
p5391
I1
sVtought
p5392
I0
sVwhre
p5393
I0
sVminor
p5394
I1
sVflat
p5395
I5
sVflaw
p5396
I0
sVmellon
p5397
I0
sVflap
p5398
I1
sVstict
p5399
I0
sVstutter
p5400
I0
sVflag
p5401
I1
sVstick
p5402
I0
sV20000
p5403
I0
sVknown
p5404
I4
sVglad
p5405
I0
sVvaluabl
p5406
I0
sVpolicemen
p5407
I1
sVcompetiot
p5408
I0
sVintercours
p5409
I0
sVbyke
p5410
I0
sV(secondari
p5411
I0
sVcours
p5412
I3
sVcourt
p5413
I3
sVgoal
p5414
I0
sVdivid
p5415
I1
sVrather
p5416
I8
sVdivis
p5417
I0
sVcuddl
p5418
I0
sVokay
p5419
I0
sVreflect
p5420
I1
sVsuvenir
p5421
I0
sVshort
p5422
I4
sVgrand-fath
p5423
I0
sVcaus
p5424
I5
sVshore
p5425
I1
sVunintenion
p5426
I1
sVmusic)
p5427
I0
sVdon't
p5428
I1
sVoctob
p5429
I0
sVscientist
p5430
I0
sVstyle
p5431
I0
sVpray
p5432
I0
sVsoccer
p5433
I0
sVmight
p5434
I12
sVreturn
p5435
I2
sVhunter
p5436
I0
sVinch
p5437
I0
sVsomebodi
p5438
I7
sVhapen
p5439
I0
sVbigger
p5440
I1
sVlevel
p5441
I3
sVceas
p5442
I0
sVdone
p5443
I2
sVfriendship
p5444
I0
sVschool-mat
p5445
I0
sVdisqualifi
p5446
I0
sVweight
p5447
I0
sVneedless
p5448
I0
sVexpect
p5449
I5
sValcohol
p5450
I2
sVhealth
p5451
I1
sVhill
p5452
I1
sVadvanc
p5453
I0
sVfriday
p5454
I6
sVdiffer
p5455
I2
sVkamuzu
p5456
I1
sV(scout
p5457
I1
sVteach
p5458
I1
sVthrown
p5459
I3
sVbroke-down
p5460
I0
sVthread
p5461
I0
sVneurolog
p5462
I0
sVperhap
p5463
I2
sVthreat
p5464
I1
sVfallen
p5465
I3
sVexcurs
p5466
I1
sVsympathi
p5467
I0
sVdine
p5468
I1
sVnotifi
p5469
I1
sVfeel
p5470
I22
sVfeet
p5471
I3
sVsailor
p5472
I0
sVfamily)
p5473
I0
sVblank
p5474
I0
sVbicycle-accid
p5475
I0
sVbreathless
p5476
I1
sVinteract
p5477
I0
sVgpa
p5478
I0
sVparents'wish
p5479
I0
sVstori
p5480
I12
sVstorm
p5481
I4
sVstora
p5482
I1
sVstore
p5483
I0
sVpump
p5484
I0
sVhotel
p5485
I3
sVlife-partn
p5486
I0
sVkind
p5487
I4
sVwhenev
p5488
I4
sVremov
p5489
I0
sVdans
p5490
I0
sVriski
p5491
I1
sVpullov
p5492
I0
sVinstructior
p5493
I0
sVdanc
p5494
I0
sVatmospher
p5495
I0
sVnieghbour
p5496
I0
sVviolat
p5497
I0
sVchairman
p5498
I0
sVreach
p5499
I4
sVreact
p5500
I2
sVfrong-seat-passenger)
p5501
I1
sVhyena
p5502
I4
sVpart
p5503
I6
sVnotch
p5504
I0
sVridicul
p5505
I0
sVmelodi
p5506
I0
sVfond
p5507
I0
sVfelow
p5508
I0
sVinapplic
p5509
I0
sVbetray
p5510
I0
sVhip
p5511
I0
sVshepherd
p5512
I1
sVhis
p5513
I28
sVhit
p5514
I9
sVproced
p5515
I0
sVequivoc
p5516
I0
sVfinanc
p5517
I0
sVhid
p5518
I3
sVlongest
p5519
I0
sVhim
p5520
I30
sVstatist
p5521
I0
sVsnowstorm
p5522
I0
sVwrote
p5523
I0
sVcertif
p5524
I2
sVart
p5525
I0
sVdump
p5526
I0
sVworkshift
p5527
I0
sVpvc
p5528
I0
sVdumb
p5529
I0
sVare
p5530
I8
sVbarg
p5531
I1
sVsouteneur
p5532
I0
sVbark
p5533
I5
sVarm
p5534
I4
sVlearnt
p5535
I2
sVblurt
p5536
I0
sVvarious
p5537
I1
sVfortuit
p5538
I0
sVlatim
p5539
I0
sVsolo
p5540
I0
sVlatin
p5541
I0
sVbibl
p5542
I0
sVsold
p5543
I0
sVaspir
p5544
I0
sVsucceed
p5545
I3
sVdays)
p5546
I0
sVsolv
p5547
I1
sVwather
p5548
I0
sS'c'
p5549
I0
sVoversea
p5550
I0
sVroman
p5551
I0
sVmotorcycl
p5552
I4
sVcarniv
p5553
I0
sVsweet
p5554
I0
sVorchestra)
p5555
I0
sVsweep
p5556
I0
sVharbour
p5557
I1
sVpsychiatr
p5558
I0
sVdistroy
p5559
I1
sVrave
p5560
I1
sVmistak
p5561
I3
sVbolster
p5562
I0
sVthere)
p5563
I0
sS'pt'
p5564
I0
sV(boyfriend)
p5565
I0
sS'py'
p5566
I0
sV(around
p5567
I1
sVdue
p5568
I3
sVwhom
p5569
I6
sS'pa'
p5570
I0
sS'pe'
p5571
I0
sVwoke
p5572
I9
sS'pm'
p5573
I4
sVflight
p5574
I0
sVreason)
p5575
I1
sVdemand
p5576
I0
sVinstructor
p5577
I0
sS'p3'
p5578
I0
sV210)
p5579
I0
sVstolen
p5580
I4
sVpackag
p5581
I1
sVfrozen
p5582
I1
sVparents;
p5583
I0
sVingratitud
p5584
I0
sVsmrgasbord
p5585
I0
sVhomework
p5586
I1
sVbehavior
p5587
I1
sVparents)
p5588
I0
sVlodger
p5589
I0
sVmistreat
p5590
I0
sVrip
p5591
I1
sVrid
p5592
I0
sVanguish
p5593
I1
sVdissuad
p5594
I0
sVshirt
p5595
I0
sVaway)
p5596
I0
sVwierd
p5597
I0
sVchicken)
p5598
I0
sS'9'
p5599
I0
sVshirk
p5600
I0
sVhigher
p5601
I3
sVpiblic
p5602
I0
sVtiresom
p5603
I0
sVwherev
p5604
I1
sVlower
p5605
I0
sVcheek
p5606
I0
sVpeople)
p5607
I0
sVcheer
p5608
I0
sVdaughter;
p5609
I0
sVanybodi
p5610
I2
sVpropos
p5611
I1
sVendeavour
p5612
I0
sVfacial
p5613
I0
sVcollabor
p5614
I1
sVsam
p5615
I0
sVassociation)
p5616
I0
sVtablet
p5617
I0
sVhumanoid
p5618
I1
sVtheoret
p5619
I0
sVcomplaint
p5620
I0
sVwest-indi
p5621
I0
sVmoralreligi
p5622
I0
sVawaken
p5623
I1
sVconfront
p5624
I6
sVincred
p5625
I1
sVearthquak
p5626
I3
sVmajong
p5627
I0
sVcollect
p5628
I1
sVarthur
p5629
I1
sVpopidol)
p5630
I0
sVvisibl
p5631
I0
sVkarate-teach
p5632
I0
sVunderstood
p5633
I0
sVlitter
p5634
I0
sV(reverse)
p5635
I1
sVanti-pornographi
p5636
I0
sVsurpris
p5637
I0
sVsaucer
p5638
I0
sVgottenburg
p5639
I1
sVdisfigur
p5640
I0
sVseller
p5641
I0
sVwomen;
p5642
I0
sVundon
p5643
I0
sVbrookfield
p5644
I0
sVsoppi
p5645
I0
sVsqueez
p5646
I0
sVmeantim
p5647
I0
sVcautious
p5648
I1
sVordeal
p5649
I0
sVreturnrd
p5650
I0
sVstricken
p5651
I1
sVmiracl
p5652
I0
sVpast;
p5653
I0
sVimcompet
p5654
I0
sVgirlfriend)
p5655
I0
sVannounc
p5656
I1
sVquestion
p5657
I5
sVlong
p5658
I11
sVlaughed)
p5659
I0
sVadjac
p5660
I0
sVvienna
p5661
I1
sVcod-liv
p5662
I0
sVcloth
p5663
I1
sVusurp
p5664
I0
sVjunior
p5665
I0
sVconsist
p5666
I0
sVten-year-old
p5667
I0
sVetc)
p5668
I0
sVx-ray
p5669
I1
sVkanishka
p5670
I0
sVralli
p5671
I3
sVfatsi
p5672
I0
sVfamin
p5673
I0
sVspontan
p5674
I0
sVriot
p5675
I0
sVraini
p5676
I1
sVlectures)
p5677
I0
sVmock
p5678
I0
sVnice
p5679
I1
sVmissil
p5680
I0
sVathen
p5681
I1
sVinsect
p5682
I0
sVinflamm
p5683
I0
sVhappier
p5684
I0
sV-that
p5685
I1
sVback)
p5686
I0
sVtrifl
p5687
I0
sVlowland
p5688
I0
sValien
p5689
I1
sVgang
p5690
I4
sVsweatheart
p5691
I0
sVinter-c
p5692
I0
sVend-of-term
p5693
I0
sVinter-n
p5694
I0
sVcelib
p5695
I1
sVyears-cours
p5696
I0
sVdandi
p5697
I0
sVmisplac
p5698
I0
sVpleas
p5699
I0
sVmalici
p5700
I0
sVsmaller
p5701
I0
sVbattl
p5702
I0
sVencourag
p5703
I0
sV(without
p5704
I0
sVplead
p5705
I0
sVfoll
p5706
I0
sVcompat
p5707
I0
sVcompar
p5708
I0
sVex-boyfriend)
p5709
I0
sV$1000
p5710
I0
sVnasogastr
p5711
I0
sVthouhght
p5712
I1
sVchose
p5713
I0
sVyoungest
p5714
I0
sVchipata
p5715
I0
sVmiser
p5716
I0
sVones)
p5717
I0
sVlarger
p5718
I0
sVtypic
p5719
I0
sVduct
p5720
I0
sVappli
p5721
I1
sVapproxim
p5722
I0
sVapt
p5723
I1
sVwalpurgi
p5724
I0
sVmotor
p5725
I2
sVduck
p5726
I1
sVuse
p5727
I6
sVfee
p5728
I2
sVusc
p5729
I0
sVusa
p5730
I1
sS'&'
p5731
I1
sVfrog
p5732
I0
sVmonetari
p5733
I0
sV(never
p5734
I0
sVfew
p5735
I12
sVfer
p5736
I0
sV15-16
p5737
I0
sVgrand-daught
p5738
I0
sVscleral
p5739
I0
sVsort
p5740
I0
sVparliament
p5741
I0
sVexamination:
p5742
I1
sVimpress
p5743
I0
sVsore
p5744
I0
sVrabbit
p5745
I0
sVexamination)
p5746
I0
sVgradmoth
p5747
I0
sVwomen
p5748
I2
sVannoy
p5749
I2
sVbridesmaid
p5750
I0
sVspi
p5751
I0
sVstroke
p5752
I1
sVus)
p5753
I0
sVtragedy)
p5754
I0
sVwildest
p5755
I0
sVdisconight
p5756
I0
sVtap
p5757
I1
sVpatron
p5758
I0
sVtax
p5759
I0
sVsectarian
p5760
I0
sVcarrot
p5761
I0
sVserial
p5762
I1
sVrape
p5763
I6
sVcounterfeit
p5764
I0
sVestrang
p5765
I0
sVmid-term
p5766
I0
sVsit
p5767
I11
sVtamper
p5768
I1
sVsix
p5769
I2
sVfaschist
p5770
I0
sVinstead
p5771
I1
sV(part
p5772
I0
sVpanic
p5773
I3
sVsin
p5774
I0
sVtension
p5775
I0
sVcupboard
p5776
I0
sVattend
p5777
I4
sVphysics-examin
p5778
I0
sVdiscomfort
p5779
I0
sVattent
p5780
I1
sVethnic
p5781
I0
sVfootpath
p5782
I0
sVcheaper
p5783
I0
sVfratern
p5784
I0
sVvillag
p5785
I7
sVlight
p5786
I16
sVbudgi
p5787
I0
sVbreast
p5788
I1
sVwhilst
p5789
I1
sV(bed)
p5790
I1
sVsuperior
p5791
I0
sV7:00
p5792
I0
sVchechoslovakia
p5793
I0
sVholiday
p5794
I9
sVcrash
p5795
I9
sVflour
p5796
I0
sVflet
p5797
I0
sVflew
p5798
I1
sVparents-in-law
p5799
I0
sVsartr
p5800
I0
sVtram
p5801
I2
sVtiss
p5802
I0
sVtray
p5803
I0
sVguarusa
p5804
I0
sVour
p5805
I45
sS'80'
p5806
I1
sVwhimsi
p5807
I0
sS'84'
p5808
I0
sVout
p5809
I67
sVchyne
p5810
I0
sVlt2
p5811
I1
sVsentiment
p5812
I0
sVpointless
p5813
I0
sVvcr
p5814
I0
sVbhopal
p5815
I0
sVutensil
p5816
I2
sVyork
p5817
I1
sVtenant
p5818
I0
sVriver
p5819
I5
sVquetion
p5820
I0
sVbirthday
p5821
I0
sVorganis
p5822
I0
sVtransfer
p5823
I1
sVtackel
p5824
I1
sVmini-bus
p5825
I0
sVwhatch
p5826
I1
sVprioriti
p5827
I0
sVdoesn't
p5828
I1
sVunknown
p5829
I6
sVaccent
p5830
I0
sVcapac
p5831
I0
sVtheir
p5832
I5
sV1500
p5833
I1
sVanaemia
p5834
I0
sVboil
p5835
I0
sVmisunderstood
p5836
I0
sVfobic
p5837
I1
sV(mark)
p5838
I0
sV(k20)
p5839
I0
sVcar-accid
p5840
I0
sV(sadness)
p5841
I0
sVcatholic
p5842
I0
sVafraid
p5843
I71
sV(age
p5844
I1
sVrout
p5845
I1
sVrous
p5846
I0
sVwhich
p5847
I36
sV(she
p5848
I0
sVwhe
p5849
I0
sVled
p5850
I0
sVself-insight
p5851
I0
sVpetrol
p5852
I0
sVwho
p5853
I30
sVwhi
p5854
I1
sVsuspected)
p5855
I0
sVindipend
p5856
I0
sVhighschool
p5857
I1
sVextermin
p5858
I0
sVclass
p5859
I18
sVsaddest
p5860
I0
sVdent
p5861
I0
sVpipe
p5862
I0
sVaskad
p5863
I0
sVdeni
p5864
I0
sVdetermin
p5865
I0
sVirrat
p5866
I0
sVuefa
p5867
I0
sVniec
p5868
I0
sVfeal
p5869
I1
sVmistook
p5870
I0
sVone)
p5871
I1
sVstove
p5872
I1
sVfeac
p5873
I0
sVword)
p5874
I0
sVgold-med
p5875
I0
sVutter
p5876
I0
sVfear
p5877
I117
sVfeat
p5878
I1
sVeas
p5879
I0
sVear
p5880
I0
sVlocat
p5881
I0
sVcarneval-parti
p5882
I0
sVinhabit
p5883
I0
sVlocal
p5884
I1
sVforfeit
p5885
I0
sVvigor
p5886
I1
sVcontribut
p5887
I0
sVwhash
p5888
I0
sVboycot
p5889
I0
sVaffluent
p5890
I0
sVwhether
p5891
I4
sVaffluenc
p5892
I0
sVview
p5893
I1
sVexpel
p5894
I2
sVknowledg
p5895
I1
sVtroubl
p5896
I2
sVfailures)
p5897
I0
sVcloser
p5898
I0
sVentranc
p5899
I4
sVcole
p5900
I0
sVpanti
p5901
I0
sVmonstrous
p5902
I1
sVfavor
p5903
I0
sVphysiolog
p5904
I0
sVviper
p5905
I0
sVcrude
p5906
I0
sVchemic
p5907
I0
sVbought
p5908
I0
sVilloy
p5909
I0
sVexam
p5910
I43
sVterrfi
p5911
I1
sVjoy
p5912
I0
sVexac
p5913
I0
sVfoetus
p5914
I0
sVcopul
p5915
I0
sVjob
p5916
I7
sVentir
p5917
I0
sVspoil
p5918
I0
sVjog
p5919
I2
sVbreackdown
p5920
I0
sVaddit
p5921
I0
sVmonth-end
p5922
I0
sVapril
p5923
I0
sVcommitte
p5924
I0
sVclose)
p5925
I0
sVwall
p5926
I6
sVarriv
p5927
I7
sVwalk
p5928
I64
sVrespect
p5929
I0
sVwithdrawn
p5930
I0
sVunclean
p5931
I0
sVevalu
p5932
I0
sVdecent
p5933
I0
sV8-week
p5934
I0
sVtutor
p5935
I0
sVbesid
p5936
I6
sVtreasur
p5937
I0
sVpresenc
p5938
I0
sVmeaningless
p5939
I0
sVpuberti
p5940
I0
sVbutcheri
p5941
I0
sVoverturn
p5942
I2
sVpresent
p5943
I3
sVintercollegi
p5944
I0
sVfeed-back
p5945
I0
sVunsuit
p5946
I0
sVwild
p5947
I3
sVobserv
p5948
I0
sVapprehend
p5949
I0
sVthus
p5950
I1
sVmotiv
p5951
I1
sVthug
p5952
I2
sVapprehens
p5953
I1
sVmisfortun
p5954
I0
sVcross
p5955
I11
sVmember
p5956
I3
sV(friendly)
p5957
I0
sVset-back
p5958
I0
sVdifficult
p5959
I7
sVbeast
p5960
I0
sVlash
p5961
I1
sVstudent
p5962
I6
sVtramway-carriage:
p5963
I0
sVgutter
p5964
I0
sV(although
p5965
I0
sVscissor
p5966
I0
sVutrecht
p5967
I0
sVenglish
p5968
I3
sVundertaken
p5969
I0
sVrocker
p5970
I1
sVtown)
p5971
I1
sVboot
p5972
I0
sVadditon
p5973
I0
sVobtain
p5974
I0
sV(electr
p5975
I0
sVghandi)
p5976
I0
sVheavili
p5977
I1
sVepisod
p5978
I1
sVrapid
p5979
I1
sVreprehend
p5980
I0
sVbell
p5981
I1
sVsky
p5982
I0
sVhall
p5983
I5
sVbook
p5984
I2
sVintroduct
p5985
I0
sVski
p5986
I9
sVenact
p5987
I0
sVknob
p5988
I1
sVsick
p5989
I3
sVirrevers
p5990
I0
sVridden
p5991
I0
sVknow
p5992
I27
sVknot
p5993
I1
sVpress
p5994
I0
sVplovdiv-bourga
p5995
I1
sVmother-in-law
p5996
I0
sVexceed
p5997
I0
sV(four
p5998
I0
sVniggl
p5999
I0
sVexport
p6000
I0
sV110
p6001
I0
sVexaminateur
p6002
I0
sVlife-sav
p6003
I0
sVleaf
p6004
I0
sVlead
p6005
I1
sVlean
p6006
I1
sVleav
p6007
I9
sVsettl
p6008
I2
sVleader
p6009
I0
sVinvestig
p6010
I0
sVobey
p6011
I0
sVslur
p6012
I0
sVslut
p6013
I0
sVmith
p6014
I0
sVrare
p6015
I0
sVuniversi
p6016
I0
sVcolumn
p6017
I0
sVbiscuit
p6018
I0
sVoff-hand
p6019
I0
sVhimself)
p6020
I0
sVswear
p6021
I0
sVmine)
p6022
I0
sVuniverst
p6023
I0
sVdisabl
p6024
I0
sVpre-marit
p6025
I0
sVown
p6026
I9
sVcri
p6027
I8
sVex-girlfriend
p6028
I0
sVman-hol
p6029
I0
sVvan
p6030
I0
sVindira
p6031
I0
sVbus-stop
p6032
I0
sVunreason
p6033
I0
sVappl
p6034
I1
sVgranni
p6035
I1
sVmutter
p6036
I0
sVsituaiton
p6037
I0
sVco-resid
p6038
I0
sVcoplain
p6039
I0
sVmade
p6040
I12
sVpuddl
p6041
I0
sVthis)
p6042
I0
sVinjur
p6043
I3
sVdistract
p6044
I0
sVanythong
p6045
I0
sVrecord
p6046
I0
sVbelow
p6047
I1
sVbelov
p6048
I0
sVcake
p6049
I0
sVbegun
p6050
I0
sVself-cent
p6051
I0
sV(chocol
p6052
I0
sVbrush-off
p6053
I0
sVmutual
p6054
I0
sVundeserv
p6055
I0
sVother
p6056
I14
sVbranch
p6057
I2
sVaxam
p6058
I0
sVunpresent
p6059
I0
sVwhitesand
p6060
I0
sVjunk
p6061
I1
sVdependiong
p6062
I0
sVsqueak
p6063
I0
sVhumbl
p6064
I0
sVcliff
p6065
I1
sVexperienc
p6066
I7
sVqueii
p6067
I0
sVreliabl
p6068
I1
sVjewel
p6069
I0
sVemerg
p6070
I2
sVauxiliari
p6071
I0
sVgynecologist
p6072
I0
s.